00000000 a VM8086Manager.cpp
00000000 a VM8086Monitor.cpp
00000000 a ahcicontroller.cpp
00000000 a ahciport.cpp
00000000 a apm.cpp
00000000 a bochsvbe.cpp
00000000 a bootconsole.cpp
00000000 a cactusos.cpp
00000000 a convert.cpp
00000000 a cpu.cpp
00000000 a debugger.cpp
00000000 a deviceheap.cpp
00000000 a directorylisting.cpp
00000000 a diskcontroller.cpp
00000000 a disk.cpp
00000000 a diskmanager.cpp
00000000 a dma.cpp
00000000 a driver.cpp
00000000 a drivermanager.cpp
00000000 a edid.cpp
00000000 a ehci.cpp
00000000 a exceptions.cpp
00000000 a fat.cpp
00000000 a fifostream.cpp
00000000 a floppy.cpp
00000000 a fpu.cpp
00000000 a gdbimpl.cpp
00000000 a gdt.cpp
00000000 a graphicsdevice.cpp
00000000 a heap.cpp
00000000 a hidparser.cpp
00000000 a i386-stub.c
00000000 a ide.cpp
00000000 a idt.cpp
00000000 a idthelper.o
00000000 a initrd.cpp
00000000 a installer.cpp
00000000 a interruptmanager.cpp
00000000 a ipcmanager.cpp
00000000 a iso9660.cpp
00000000 a kernel.cpp
00000000 a kernelz/src/core/cpuhelper.asm
00000000 a kernelz/src/core/gdthelper.asm
00000000 a kernelz/src/core/tsshelper.asm
00000000 a kernelz/src/system/tasking/userspace.asm
00000000 a kernelz/src/system/virtual8086/VM8086Code.asm
00000000 a kernelz/src/system/virtual8086/VM8086Helper.asm
00000000 a keyboard.cpp
00000000 a keyboardmanager.cpp
00000000 a linux.cpp
00000000 a listingcontroller.cpp
00000000 a loader.o
00000000 a lock.cpp
00000000 a log.cpp
00000000 a mass_storage.cpp
00000000 a memoryoperations.cpp
00000000 a ohci.cpp
00000000 a partitionmanager.cpp
00000000 a pci.cpp
00000000 a pcidrivers.cpp
00000000 a physicalmemory.cpp
00000000 a pit.cpp
00000000 a power.cpp
00000000 a print.cpp
00000000 a process.cpp
00000000 a ps2-keyboard.cpp
00000000 a ps2-mouse.cpp
00000000 a random.cpp
00000000 a rtc.cpp
00000000 a scheduler.cpp
00000000 a serialport.cpp
00000000 a sharedmem.cpp
00000000 a smbios.cpp
00000000 a stream.cpp
00000000 a string.cpp
00000000 a syscalls.cpp
00000000 a systemcomponents.cpp
00000000 a system.cpp
00000000 a systeminfo.cpp
00000000 a textgui.cpp
00000000 a thread.cpp
00000000 a tss.cpp
00000000 a uhci.cpp
00000000 a usb3.cpp
00000000 a usbcomborecv.cpp
00000000 a usbcontroller.cpp
00000000 a usbdevice.cpp
00000000 a usbdriver.cpp
00000000 a usbendpoint.cpp
00000000 a usbkeyboard.cpp
00000000 a usbmanager.cpp
00000000 a usbmouse.cpp
00000000 a vesa.cpp
00000000 a vfsmanager.cpp
00000000 a virtualfilesystem.cpp
00000000 a virtualmemory.cpp
00000000 a vmwaresvga.cpp
00000000 a xhci.cpp
00000001 a ALIGN
00000002 a MEMINFO
00000003 a FLAGS
00000300 a KERNEL_PAGE_NUMBER
1badb002 a MAGIC
c0000000 a KERNEL_VIRTUAL_BASE
c0100000 T _kernel_base
c010000c T _strcpy
c0100049 T _get_idt_base
c010006a T _exceptionHandler
c01000b3 T _return_to_prog
c0100113 t mem_fault
c0100130 T __catchException3
c01001c1 T __catchException1
c0100252 T __catchException0
c01002e3 T __catchException4
c0100374 T __catchException5
c0100405 T __catchException6
c0100496 T __catchException7
c0100527 T __catchException8
c01005bf T __catchException9
c0100650 T __catchException10
c01006e8 T __catchException12
c0100780 T __catchException16
c0100811 T __catchException13
c01008b6 T __catchException11
c010095b T __catchException14
c0100a00 t _remcomHandler
c0100a0e T __returnFromException
c0100a1c T _hex
c0100a6e T _getpacket
c0100bbc T _putpacket
c0100c67 T _debug_error
c0100c90 T _set_mem_err
c0100ca0 T _get_char
c0100cae T _set_char
c0100cbe T _mem2hex
c0100d64 T _hex2mem
c0100e08 T _computeSignal
c0100ebd T _hexToInt
c0100f29 T _handle_exception
c01013d2 T _set_debug_traps
c01014ac T _breakpoint
c01014be T _putDebugChar
c01014dd T _getDebugChar
c01014ed T _fprintf
c0101808 T _ZN8HeisenOs4core10Exceptions12DivideByZeroEj
c0101848 T _ZN8HeisenOs4core10Exceptions22GeneralProtectionFaultEj
c0101976 T _ZN8HeisenOs4core10Exceptions9PageFaultEj
c0101ba2 T _ZN8HeisenOs4core10Exceptions13TrapExceptionEj
c0101be4 T _ZN8HeisenOs4core10Exceptions22FloatingPointExceptionEj
c0101c6c T _ZN8HeisenOs4core10Exceptions17StackSegmentFaultEj
c0101d9a T _ZN8HeisenOs4core10Exceptions15HandleExceptionEjj
c0101e98 T _ZN8HeisenOs4core10Exceptions22EnablePagefaultAutoFixEv
c0101ea6 T _ZN8HeisenOs4core10Exceptions23DisablePagefaultAutoFixEv
c0101eb4 T _ZN8HeisenOs4core10Exceptions14ShowStacktraceEj
c0101f32 t _ZN8HeisenOs4coreL8outportbEth
c0101f52 T _ZN8HeisenOs4core24InterruptDescriptorTable13SetDescriptorEjPFvvEi
c0101fb4 T _ZN8HeisenOs4core24InterruptDescriptorTable7InstallEv
c01023be T _ZN8HeisenOs4core24InterruptDescriptorTable15HandleInterruptEPNS0_8CPUStateE
c010246a T _ZN8HeisenOs4core24InterruptDescriptorTable16EnableInterruptsEv
c0102472 T _ZN8HeisenOs4core24InterruptDescriptorTable17DisableInterruptsEv
c010247a T _ZN8HeisenOs4core24InterruptDescriptorTable10AreEnabledEv
c01024a0 T gdt_flush
c01024c1 t flush
c01024c2 T _ZN8HeisenOs4core21PhysicalMemoryManager9FirstFreeEv
c010254a T _ZN8HeisenOs4core21PhysicalMemoryManager13FirstFreeSizeEj
c0102656 T _ZN8HeisenOs4core21PhysicalMemoryManager10InitializeEjj
c01027b6 T _ZN8HeisenOs4core21PhysicalMemoryManager13SetRegionFreeEjj
c0102836 T _ZN8HeisenOs4core21PhysicalMemoryManager13SetRegionUsedEjj
c01028b6 T _ZN8HeisenOs4core21PhysicalMemoryManager14ParseMemoryMapEPK14multiboot_info
c0102a78 T _ZN8HeisenOs4core21PhysicalMemoryManager13AllocateBlockEv
c0102ae0 T _ZN8HeisenOs4core21PhysicalMemoryManager9FreeBlockEPv
c0102b28 T _ZN8HeisenOs4core21PhysicalMemoryManager14AllocateBlocksEj
c0102bb8 T _ZN8HeisenOs4core21PhysicalMemoryManager10FreeBlocksEPvj
c0102c1c T _ZN8HeisenOs4core21PhysicalMemoryManager14AmountOfMemoryEv
c0102c26 T _ZN8HeisenOs4core21PhysicalMemoryManager10UsedBlocksEv
c0102c30 T _ZN8HeisenOs4core21PhysicalMemoryManager10FreeBlocksEv
c0102c44 T _ZN8HeisenOs4core21PhysicalMemoryManager11TotalBlocksEv
c0102c4e T _ZN8HeisenOs4core21PhysicalMemoryManager13GetBitmapSizeEv
c0102c7d T _ZN8HeisenOs4core11pageRoundUpEj
c0102c9f T _ZN8HeisenOs4core13pageRoundDownEj
c0102cac W _ZN8HeisenOsli3_KBEy
c0102cc6 W _ZN8HeisenOsli3_MBEy
c0102cf2 W _ZN8HeisenOsli3_GBEy
c0102d1e W _ZN8HeisenOs4core21PhysicalMemoryManager6SetBitEj
c0102d5f W _ZN8HeisenOs4core21PhysicalMemoryManager8UnsetBitEj
c0102da2 W _ZN8HeisenOs4core21PhysicalMemoryManager7TestBitEj
c0102dd6 t _ZN8HeisenOs4coreL6invlpgEPv
c0102de2 T _ZN8HeisenOs4core20VirtualMemoryManager9ReloadCR3Ev
c0102dee T _ZN8HeisenOs4core20VirtualMemoryManager10InitializeEv
c0103142 T _ZN8HeisenOs4core20VirtualMemoryManager17GetPageForAddressEjbbb
c01032ee T _ZN8HeisenOs4core20VirtualMemoryManager12AllocatePageEPNS0_14PageTableEntryEbb
c01033d8 T _ZN8HeisenOs4core20VirtualMemoryManager8FreePageEPNS0_14PageTableEntryE
c010343a T _ZN8HeisenOs4core20VirtualMemoryManager19GetPageTableAddressEt
c010345e T _ZN8HeisenOs4core20VirtualMemoryManager17virtualToPhysicalEPv
c01034d6 T _ZN8HeisenOs4core20VirtualMemoryManager20mapVirtualToPhysicalEPvS2_bb
c01035da T _ZN8HeisenOs4core20VirtualMemoryManager20mapVirtualToPhysicalEPvS2_jbb
c010367e T _ZN8HeisenOs4core20VirtualMemoryManager19SwitchPageDirectoryEj
c010368a T _ZN8HeisenOs4core20VirtualMemoryManager23GetPageDirectoryAddressEv
c01036a0 T flush_tss
c01036a8 t _ZN8HeisenOs4coreL7inportbEt
c01036c5 t _ZN8HeisenOs4coreL8outportbEth
c01036e4 t _ZN8HeisenOs4coreL7inportwEt
c0103703 t _ZN8HeisenOs4coreL8outportwEtt
c0103724 T _Z15acpiCheckRSDPtrPj
c01037c3 T _Z13acpiGetRSDPtrv
c0103855 T _Z15acpiCheckHeaderPjPc
c01038c9 T _Z10acpiEnablev
c0103a43 T _Z8initAcpiv
c0103cda T _ZN8HeisenOs4core5Power10InitializeEv
c0103cf2 T _ZN8HeisenOs4core5Power8PoweroffEv
c0103e16 T _ZN8HeisenOs4core5Power6RebootEv
c0103e6b T HandleException0x00
c0103e74 T HandleException0x01
c0103e7d T HandleException0x02
c0103e86 T HandleException0x03
c0103e8f T HandleException0x04
c0103e98 T HandleException0x05
c0103ea1 T HandleException0x06
c0103eaa T HandleException0x07
c0103eb3 T HandleException0x08
c0103eba T HandleException0x09
c0103ec3 T HandleException0x0A
c0103eca T HandleException0x0B
c0103ed1 T HandleException0x0C
c0103ed8 T HandleException0x0D
c0103edf T HandleException0x0E
c0103ee6 T HandleException0x0F
c0103eef T HandleException0x10
c0103ef8 T HandleException0x11
c0103f01 T HandleException0x12
c0103f07 T HandleException0x13
c0103f0d T HandleInterruptRequest0x00
c0103f13 T HandleInterruptRequest0x01
c0103f19 T HandleInterruptRequest0x02
c0103f1f T HandleInterruptRequest0x03
c0103f25 T HandleInterruptRequest0x04
c0103f2b T HandleInterruptRequest0x05
c0103f31 T HandleInterruptRequest0x06
c0103f37 T HandleInterruptRequest0x07
c0103f3d T HandleInterruptRequest0x08
c0103f43 T HandleInterruptRequest0x09
c0103f49 T HandleInterruptRequest0x0A
c0103f4f T HandleInterruptRequest0x0B
c0103f55 T HandleInterruptRequest0x0C
c0103f5b T HandleInterruptRequest0x0D
c0103f61 T HandleInterruptRequest0x0E
c0103f67 T HandleInterruptRequest0x0F
c0103f6d T HandleInterruptRequest0x31
c0103f73 T HandleInterruptRequest0xDD
c0103f7c T HandleInterruptRequest0x60
c0103f85 t interrupthandler
c0103fa8 T IgnoreInterrupt
c0103faa T _ZN8HeisenOs4core3FPU6EnableEv
c0104036 t _ZL5cpuidjPjS_S_S_
c010405a T _ZN8HeisenOs4core3CPU11PrintVendorEv
c01040a6 T _ZN8HeisenOs4core3CPU14EnableFeaturesEv
c0104130 T _ZN8HeisenOs4core21GlobalDescriptorTable13SetDescriptorEijjhh
c01041ca T _ZN8HeisenOs4core21GlobalDescriptorTable13GetDescriptorEi
c01041da T _ZN8HeisenOs4core21GlobalDescriptorTable4InitEv
c0104280 T EnableSSE
c010429a T _ZN8HeisenOs4core3TSS7InstallEjjj
c0104310 T _ZN8HeisenOs4core3TSS8SetStackEjj
c0104326 T _ZN8HeisenOs4core3TSS10GetCurrentEv
c0104330 T _Znwm
c0104348 T _Znam
c0104360 T _ZnwmPv
c0104368 T _ZnamPv
c0104370 T _ZdlPv
c0104387 T _ZdaPv
c010439e T _ZdlPvm
c01043b5 T _ZdaPvm
c01043cc T callConstructors
c01043f3 T _Z10IdleThreadv
c0104568 T kernelMain
c0104d50 W _ZN8HeisenOs6common4ListIPNS_6system6ThreadEE9push_backERKS4_
c0104d6c W _ZN8HeisenOs6common4ListIPNS_6system6ThreadEEixEi
c0104d86 W _ZN8HeisenOs6common4ListIPNS_6system17VirtualFileSystemEE5GetAtEi
c0104de4 W _ZN8HeisenOs6common4ListIPNS_6system6ThreadEE14insertInternalERKS4_PNS0_8ListNodeIS4_EE
c0104ea2 W _ZN8HeisenOs6common4ListIPNS_6system6ThreadEE5GetAtEi
c0104f00 W _ZN8HeisenOs6common8ListNodeIPNS_6system6ThreadEEC1ERKS4_
c0104f00 W _ZN8HeisenOs6common8ListNodeIPNS_6system6ThreadEEC2ERKS4_
c0104f24 T _entrypoint
c0104f80 t _stop
c0104f90 T Int86
c0104f90 T VM86CodeStart
c0104fa8 t Int86.doInt
c0104fc2 T diskInfo
c0104fd6 t diskInfoError
c0104fde T VM86CodeEnd
c0104fe0 T cpuGetEIP
c0104fe3 T cpuGetESP
c0104feb T cpuEnterV86Int
c010500c T cpuEnterV86
c010503a t _ZN8HeisenOs4coreL7inportbEt
c0105057 t _ZN8HeisenOs4coreL8outportbEth
c0105076 t _ZN8HeisenOs4coreL7inportwEt
c0105095 t _ZN8HeisenOs4coreL8outportwEtt
c01050b6 t _ZN8HeisenOs4coreL7inportlEt
c01050d2 t _ZN8HeisenOs4coreL8outportlEtj
c01050ea T _ZN8HeisenOs6system18Virtual8086MonitorC1Ev
c01050ea T _ZN8HeisenOs6system18Virtual8086MonitorC2Ev
c010510e t _ZL5peekbtt
c0105136 t _ZL5peekwtt
c010515e t _ZL5peekltt
c0105185 t _ZL5pokebtth
c01051b9 t _ZL5pokewttt
c01051ef t _ZL5pokelttj
c010521c t _ZL5pushwPN8HeisenOs4core8CPUStateEt
c0105260 t _ZL5pushlPN8HeisenOs4core8CPUStateEj
c0105298 t _ZL4popwPN8HeisenOs4core8CPUStateE
c01052d7 t _ZL4poplPN8HeisenOs4core8CPUStateE
c0105314 T _ZN8HeisenOs6system18Virtual8086Monitor15HandleInterruptEj
c0105914 t _ZN8HeisenOs4coreL6invlpgEPv
c0105920 T _ZN8HeisenOs6system18Virtual8086ManagerC1Ev
c0105920 T _ZN8HeisenOs6system18Virtual8086ManagerC2Ev
c010596c T _ZN8HeisenOs6system18Virtual8086Manager15HandleInterruptEj
c0105a6c T _ZN8HeisenOs6system18Virtual8086Manager9vm86EnterEttttj
c0105b38 T _ZN8HeisenOs6system18Virtual8086Manager13CallInterruptEhPNS0_13VM86ArgumentsE
c0105b9e T _ZN8HeisenOs6system18Virtual8086Manager11ExecuteCodeEjj
c0105bd2 T _ZN8HeisenOs6system14InitialRamDisk10InitializeEP14multiboot_info
c0105c48 T _ZN8HeisenOs6system14InitialRamDisk8ReadFileEPKcPj
c0105cba T _ZN8HeisenOs6system3FATC1EPNS0_4DiskEjj
c0105cba T _ZN8HeisenOs6system3FATC2EPNS0_4DiskEjj
c0105d6a T _ZN8HeisenOs6system3FATD1Ev
c0105d6a T _ZN8HeisenOs6system3FATD2Ev
c0105da4 T _ZN8HeisenOs6system3FATD0Ev
c0105dce T _ZN8HeisenOs6system3FAT10InitializeEv
c010619e T _ZN8HeisenOs6system3FAT9ReadTableEj
c01063d6 T _ZN8HeisenOs6system3FAT10WriteTableEjj
c010673e T _ZN8HeisenOs6system3FAT15AllocateClusterEv
c01067ce T _ZN8HeisenOs6system3FAT12ClearClusterEj
c0106882 T _ZN8HeisenOs6system3FAT19GetDirectoryEntriesEjb
c0106bd6 T _ZN8HeisenOs6system3FAT16SeachInDirectoryEPcjb
c0106d6a T _ZN8HeisenOs6system3FAT14GetEntryByPathEPc
c0106f74 T _ZN8HeisenOs6system3FAT8ChecksumEPc
c0106fb4 T _ZN8HeisenOs6system3FAT15ParseLFNEntriesEPNS_6common4ListINS0_8LFNEntryEEENS0_14DirectoryEntryE
c01071fe T _ZN8HeisenOs6system3FAT18ParseShortFilenameEPc
c01072de T _ZN8HeisenOs6system3FAT19FindEntryStartpointEjjbPjS2_S2_
c01075c8 T _ZN8HeisenOs6system3FAT19CreateShortFilenameEPc
c0107752 T _ZN8HeisenOs6system3FAT24CreateLFNEntriesFromNameEPcih
c01078c2 T _ZN8HeisenOs6system3FAT24WriteLongFilenameEntriesEPNS_6common4ListINS0_8LFNEntryEEEjjjb
c0107aa6 T _ZN8HeisenOs6system3FAT19WriteDirectoryEntryENS0_14DirectoryEntryEjjb
c0107b58 T _ZN8HeisenOs6system3FAT11CreateEntryEjPchbjPj
c0107f46 T _ZN8HeisenOs6system3FAT21CreateNewDirFileEntryEPKch
c0108382 T _ZN8HeisenOs6system3FAT11ModifyEntryEPNS0_12FATEntryInfoENS0_14DirectoryEntryE
c0108474 T _ZN8HeisenOs6system3FAT7FatTimeEv
c01084c2 T _ZN8HeisenOs6system3FAT7FatDateEv
c0108512 T _ZN8HeisenOs6system3FAT13DirectoryListEPKc
c01087c4 T _ZN8HeisenOs6system3FAT11GetFileSizeEPKc
c0108848 T _ZN8HeisenOs6system3FAT8ReadFileEPKcPhjj
c0108a86 T _ZN8HeisenOs6system3FAT9WriteFileEPKcPhjb
c0108e7a T _ZN8HeisenOs6system3FAT10CreateFileEPKc
c0108e96 T _ZN8HeisenOs6system3FAT15CreateDirectoryEPKc
c0108eb2 T _ZN8HeisenOs6system3FAT10FileExistsEPKc
c0108f26 T _ZN8HeisenOs6system3FAT15DirectoryExistsEPKc
c0108f9a W _ZN8HeisenOs6system3FAT15ClusterToSectorEj
c0108fba W _ZN8HeisenOs6common4ListINS_6system12FATEntryInfoEEC1Ev
c0108fba W _ZN8HeisenOs6common4ListINS_6system12FATEntryInfoEEC2Ev
c0108ff2 W _ZN8HeisenOs6common4ListINS_6system12FATEntryInfoEED1Ev
c0108ff2 W _ZN8HeisenOs6common4ListINS_6system12FATEntryInfoEED2Ev
c010900a W _ZN8HeisenOs6common4ListINS_6system8LFNEntryEEC1Ev
c010900a W _ZN8HeisenOs6common4ListINS_6system8LFNEntryEEC2Ev
c0109042 W _ZN8HeisenOs6common4ListINS_6system8LFNEntryEED1Ev
c0109042 W _ZN8HeisenOs6common4ListINS_6system8LFNEntryEED2Ev
c010905a W _ZN8HeisenOs6common4ListINS_6system8LFNEntryEE9push_backERKS3_
c0109076 W _ZN8HeisenOs6common4ListINS_6system8LFNEntryEE4sizeEv
c0109082 W _ZN8HeisenOs6common4ListINS_6system8LFNEntryEE5ClearEv
c0109100 W _ZN8HeisenOs6common4ListINS_6system12FATEntryInfoEE9push_backERKS3_
c010911c W _ZN8HeisenOs6common4ListINS_6system12FATEntryInfoEE5beginEv
c010913e W _ZN8HeisenOs6common4ListINS_6system12FATEntryInfoEE3endEv
c010915c W _ZN8HeisenOs6common4ListINS_6system12FATEntryInfoEE8iteratorneERKS5_
c0109170 W _ZN8HeisenOs6common4ListINS_6system12FATEntryInfoEE8iteratorppEv
c0109192 W _ZN8HeisenOs6common4ListINS_6system12FATEntryInfoEE8iteratordeEv
c010919c W _ZN8HeisenOs6common4ListINS_6system12FATEntryInfoEE5ClearEv
c010921a W _ZN8HeisenOs6common4ListIPcED1Ev
c010921a W _ZN8HeisenOs6common4ListIPcED2Ev
c0109232 W _ZN8HeisenOs6common4ListIPcE4sizeEv
c010923e W _ZN8HeisenOs6common4ListIPcEixEi
c0109258 W _ZN8HeisenOs6common4ListIPcE5beginEv
c010927a W _ZN8HeisenOs6common4ListIPcE3endEv
c0109298 W _ZN8HeisenOs6common4ListIPcE8iteratorneERKS4_
c01092ac W _ZN8HeisenOs6common4ListIPcE8iteratorppEv
c01092ce W _ZN8HeisenOs6common4ListIPcE8iteratordeEv
c01092d8 W _ZN8HeisenOs6common4ListINS_6system8LFNEntryEE5beginEv
c01092fa W _ZN8HeisenOs6common4ListINS_6system8LFNEntryEE3endEv
c0109318 W _ZN8HeisenOs6common4ListINS_6system8LFNEntryEE8iteratorneERKS5_
c010932c W _ZN8HeisenOs6common4ListINS_6system8LFNEntryEE8iteratorppEv
c010934e W _ZN8HeisenOs6common4ListINS_6system8LFNEntryEE8iteratordeEv
c0109358 W _ZN8HeisenOs6common4ListINS_6system8LFNEntryEE10push_frontERKS3_
c0109378 W _ZN8HeisenOs6common4ListINS_6system8LFNEntryEE5GetAtEi
c0109404 W _ZN8HeisenOs6common4ListIN15LIBHeisenKernel8VFSEntryEEC1Ev
c0109404 W _ZN8HeisenOs6common4ListIN15LIBHeisenKernel8VFSEntryEEC2Ev
c010943c W _ZN8HeisenOs6common4ListIN15LIBHeisenKernel8VFSEntryEE9push_backERKS3_
c0109458 W _ZN8HeisenOs6common4ListINS_6system8LFNEntryEE14insertInternalERKS3_PNS0_8ListNodeIS3_EE
c0109516 W _ZN8HeisenOs6common4ListINS_6system12FATEntryInfoEE14insertInternalERKS3_PNS0_8ListNodeIS3_EE
c01095d4 W _ZN8HeisenOs6common4ListINS_6system12FATEntryInfoEE8iteratorC1EPNS0_8ListNodeIS3_EE
c01095d4 W _ZN8HeisenOs6common4ListINS_6system12FATEntryInfoEE8iteratorC2EPNS0_8ListNodeIS3_EE
c01095e2 W _ZN8HeisenOs6common4ListIPcE5ClearEv
c0109660 W _ZN8HeisenOs6common4ListIPcE5GetAtEi
c01096be W _ZN8HeisenOs6common4ListIPcE8iteratorC1EPNS0_8ListNodeIS2_EE
c01096be W _ZN8HeisenOs6common4ListIPcE8iteratorC2EPNS0_8ListNodeIS2_EE
c01096cc W _ZN8HeisenOs6common4ListINS_6system8LFNEntryEE8iteratorC1EPNS0_8ListNodeIS3_EE
c01096cc W _ZN8HeisenOs6common4ListINS_6system8LFNEntryEE8iteratorC2EPNS0_8ListNodeIS3_EE
c01096da W _ZN8HeisenOs6common4ListIN15LIBHeisenKernel8VFSEntryEE14insertInternalERKS3_PNS0_8ListNodeIS3_EE
c01097b4 W _ZN8HeisenOs6common8ListNodeINS_6system8LFNEntryEEC1ERKS3_
c01097b4 W _ZN8HeisenOs6common8ListNodeINS_6system8LFNEntryEEC2ERKS3_
c0109802 W _ZN8HeisenOs6common8ListNodeINS_6system12FATEntryInfoEEC1ERKS3_
c0109802 W _ZN8HeisenOs6common8ListNodeINS_6system12FATEntryInfoEEC2ERKS3_
c0109862 W _ZN8HeisenOs6common8ListNodeIN15LIBHeisenKernel8VFSEntryEEC1ERKS3_
c0109862 W _ZN8HeisenOs6common8ListNodeIN15LIBHeisenKernel8VFSEntryEEC2ERKS3_
c010989e T _ZN8HeisenOs6system10VFSManagerC1Ev
c010989e T _ZN8HeisenOs6system10VFSManagerC2Ev
c01098d6 T _ZN8HeisenOs6system10VFSManager17ExtractDiskNumberEPKcPh
c01099ec T _ZN8HeisenOs6system10VFSManager5MountEPNS0_17VirtualFileSystemE
c0109a0a T _ZN8HeisenOs6system10VFSManager7UnmountEPNS0_17VirtualFileSystemE
c0109a28 T _ZN8HeisenOs6system10VFSManager13UnmountByDiskEPNS0_4DiskE
c0109aba T _ZN8HeisenOs6system10VFSManager19SearchBootPartitionEv
c0109ddc T _ZN8HeisenOs6system10VFSManager13DirectoryListEPKc
c0109e6c T _ZN8HeisenOs6system10VFSManager11GetFileSizeEPKc
c0109efc T _ZN8HeisenOs6system10VFSManager8ReadFileEPKcPhjj
c0109f94 T _ZN8HeisenOs6system10VFSManager9WriteFileEPKcPhjb
c010a038 T _ZN8HeisenOs6system10VFSManager10FileExistsEPKc
c010a0c8 T _ZN8HeisenOs6system10VFSManager15DirectoryExistsEPKc
c010a180 T _ZN8HeisenOs6system10VFSManager10CreateFileEPKc
c010a238 T _ZN8HeisenOs6system10VFSManager15CreateDirectoryEPKc
c010a2f0 T _ZN8HeisenOs6system10VFSManager10EjectDriveEPKc
c010a38d W _ZN8HeisenOs6common8divide64EyjPj
c010a4da W _ZN8HeisenOs6common4ListIPNS_6system17VirtualFileSystemEEC1Ev
c010a4da W _ZN8HeisenOs6common4ListIPNS_6system17VirtualFileSystemEEC2Ev
c010a512 W _ZN8HeisenOs6common4ListIPNS_6system17VirtualFileSystemEE9push_backERKS4_
c010a52e W _ZN8HeisenOs6common4ListIPNS_6system17VirtualFileSystemEE6RemoveERKS4_
c010a582 W _ZN8HeisenOs6common4ListIPNS_6system17VirtualFileSystemEE5beginEv
c010a5a4 W _ZN8HeisenOs6common4ListIPNS_6system17VirtualFileSystemEE3endEv
c010a5c2 W _ZN8HeisenOs6common4ListIPNS_6system17VirtualFileSystemEE8iteratorneERKS6_
c010a5d6 W _ZN8HeisenOs6common4ListIPNS_6system17VirtualFileSystemEE8iteratorppEv
c010a5f8 W _ZN8HeisenOs6common4ListIPNS_6system17VirtualFileSystemEE8iteratordeEv
c010a602 W _ZN8HeisenOs6common4ListIPNS_6system4DiskEEC1Ev
c010a602 W _ZN8HeisenOs6common4ListIPNS_6system4DiskEEC2Ev
c010a63a W _ZN8HeisenOs6common4ListIPNS_6system4DiskEED1Ev
c010a63a W _ZN8HeisenOs6common4ListIPNS_6system4DiskEED2Ev
c010a652 W _ZN8HeisenOs6common4ListIPNS_6system4DiskEE5beginEv
c010a674 W _ZN8HeisenOs6common4ListIPNS_6system4DiskEE3endEv
c010a692 W _ZN8HeisenOs6common4ListIPNS_6system4DiskEE8iteratorneERKS6_
c010a6a6 W _ZN8HeisenOs6common4ListIPNS_6system4DiskEE8iteratorppEv
c010a6c8 W _ZN8HeisenOs6common4ListIPNS_6system4DiskEE8iteratordeEv
c010a6d2 W _ZN8HeisenOs6common4ListIPNS_6system4DiskEE9push_backERKS4_
c010a6ee W _ZN8HeisenOs6common4ListIPNS_6system17VirtualFileSystemEE4sizeEv
c010a6fa W _ZN8HeisenOs6common4ListIPNS_6system4DiskEE7IndexOfERKS4_
c010a746 W _ZN8HeisenOs6common4ListIPNS_6system17VirtualFileSystemEE14insertInternalERKS4_PNS0_8ListNodeIS4_EE
c010a804 W _ZN8HeisenOs6common4ListIPNS_6system17VirtualFileSystemEE6RemoveEi
c010a844 W _ZN8HeisenOs6common4ListIPNS_6system17VirtualFileSystemEE8iteratorC1EPNS0_8ListNodeIS4_EE
c010a844 W _ZN8HeisenOs6common4ListIPNS_6system17VirtualFileSystemEE8iteratorC2EPNS0_8ListNodeIS4_EE
c010a852 W _ZN8HeisenOs6common4ListIPNS_6system4DiskEE5ClearEv
c010a8d0 W _ZN8HeisenOs6common4ListIPNS_6system4DiskEE8iteratorC1EPNS0_8ListNodeIS4_EE
c010a8d0 W _ZN8HeisenOs6common4ListIPNS_6system4DiskEE8iteratorC2EPNS0_8ListNodeIS4_EE
c010a8de W _ZN8HeisenOs6common4ListIPNS_6system4DiskEE14insertInternalERKS4_PNS0_8ListNodeIS4_EE
c010a99c W _ZN8HeisenOs6common4ListIPNS_6system4DiskEE5GetAtEi
c010a9fa W _ZN8HeisenOs6common8ListNodeIPNS_6system17VirtualFileSystemEEC1ERKS4_
c010a9fa W _ZN8HeisenOs6common8ListNodeIPNS_6system17VirtualFileSystemEEC2ERKS4_
c010aa1e W _ZN8HeisenOs6common4ListIPNS_6system17VirtualFileSystemEE14removeInternalEPNS0_8ListNodeIS4_EE
c010aad8 W _ZN8HeisenOs6common8ListNodeIPNS_6system4DiskEEC1ERKS4_
c010aad8 W _ZN8HeisenOs6common8ListNodeIPNS_6system4DiskEEC2ERKS4_
c010aafc T _ZN8HeisenOs6system17VirtualFileSystemC1EPNS0_4DiskEjjPc
c010aafc T _ZN8HeisenOs6system17VirtualFileSystemC2EPNS0_4DiskEjjPc
c010ab3a T _ZN8HeisenOs6system17VirtualFileSystemD1Ev
c010ab3a T _ZN8HeisenOs6system17VirtualFileSystemD2Ev
c010ab64 T _ZN8HeisenOs6system17VirtualFileSystemD0Ev
c010ab8a T _ZN8HeisenOs6system17VirtualFileSystem10InitializeEv
c010ab94 T _ZN8HeisenOs6system17VirtualFileSystem8ReadFileEPKcPhjj
c010abb8 T _ZN8HeisenOs6system17VirtualFileSystem9WriteFileEPKcPhjb
c010abe2 T _ZN8HeisenOs6system17VirtualFileSystem10FileExistsEPKc
c010ac06 T _ZN8HeisenOs6system17VirtualFileSystem15DirectoryExistsEPKc
c010ac2a T _ZN8HeisenOs6system17VirtualFileSystem10CreateFileEPKc
c010ac4e T _ZN8HeisenOs6system17VirtualFileSystem15CreateDirectoryEPKc
c010ac72 T _ZN8HeisenOs6system17VirtualFileSystem11GetFileSizeEPKc
c010ac96 T _ZN8HeisenOs6system17VirtualFileSystem13DirectoryListEPKc
c010acba T _ZN8HeisenOs6system7ISO9660C1EPNS0_4DiskEjj
c010acba T _ZN8HeisenOs6system7ISO9660C2EPNS0_4DiskEjj
c010acf2 T _ZN8HeisenOs6system7ISO966010InitializeEv
c010afcc T _ZN8HeisenOs6system7ISO966013GetRecordNameEPNS0_15DirectoryRecordE
c010b198 T _ZN8HeisenOs6system7ISO966012GetEntryTypeEPNS0_15DirectoryRecordE
c010b1ac T _ZN8HeisenOs6system7ISO966017SearchInDirectoryEPNS0_15DirectoryRecordEPKc
c010b378 T _ZN8HeisenOs6system7ISO96608GetEntryEPKc
c010b46c T _ZN8HeisenOs6system7ISO966013DirectoryListEPKc
c010b722 T _ZN8HeisenOs6system7ISO966011GetFileSizeEPKc
c010b7b4 T _ZN8HeisenOs6system7ISO96608ReadFileEPKcPhjj
c010b95e T _ZN8HeisenOs6system7ISO96609WriteFileEPKcPhjb
c010b972 T _ZN8HeisenOs6system7ISO966010CreateFileEPKc
c010b97c T _ZN8HeisenOs6system7ISO966015CreateDirectoryEPKc
c010b986 T _ZN8HeisenOs6system7ISO966010FileExistsEPKc
c010ba10 T _ZN8HeisenOs6system7ISO966015DirectoryExistsEPKc
c010ba9a W _ZN8HeisenOs6system7ISO9660D1Ev
c010ba9a W _ZN8HeisenOs6system7ISO9660D2Ev
c010babc W _ZN8HeisenOs6system7ISO9660D0Ev
c010bae2 T _Z14GetMSSinceBootv
c010bb0b T _ZN8HeisenOs6system5PrintEPKcj
c010bb96 T _ZN8HeisenOs6system3LogENS0_8LogLevelEPKcz
c010bffe T _ZN8HeisenOs6system7drivers13DriverManagerC1Ev
c010bffe T _ZN8HeisenOs6system7drivers13DriverManagerC2Ev
c010c026 T _ZN8HeisenOs6system7drivers13DriverManager9AddDriverEPNS1_6DriverE
c010c042 T _ZN8HeisenOs6system7drivers13DriverManager11ActivateAllEv
c010c106 W _ZN8HeisenOs6common4ListIPNS_6system7drivers6DriverEEC1Ev
c010c106 W _ZN8HeisenOs6common4ListIPNS_6system7drivers6DriverEEC2Ev
c010c13e W _ZN8HeisenOs6common4ListIPNS_6system7drivers6DriverEE5ClearEv
c010c1bc W _ZN8HeisenOs6common4ListIPNS_6system7drivers6DriverEE9push_backERKS5_
c010c1d8 W _ZN8HeisenOs6common4ListIPNS_6system7drivers6DriverEE4sizeEv
c010c1e4 W _ZN8HeisenOs6common4ListIPNS_6system7drivers6DriverEEixEi
c010c1fe W _ZN8HeisenOs6common4ListIPNS_6system7drivers6DriverEE14insertInternalERKS5_PNS0_8ListNodeIS5_EE
c010c2bc W _ZN8HeisenOs6common4ListIPNS_6system7drivers6DriverEE5GetAtEi
c010c31a W _ZN8HeisenOs6common8ListNodeIPNS_6system7drivers6DriverEEC1ERKS5_
c010c31a W _ZN8HeisenOs6common8ListNodeIPNS_6system7drivers6DriverEEC2ERKS5_
c010c33e t _ZN8HeisenOs4coreL7inportlEt
c010c35a t _ZN8HeisenOs4coreL8outportlEtj
c010c372 T _ZN8HeisenOs6system7drivers12VMWARESVGAIIC1EPNS0_9PCIDeviceE
c010c372 T _ZN8HeisenOs6system7drivers12VMWARESVGAIIC2EPNS0_9PCIDeviceE
c010c3ee T _ZN8HeisenOs6system7drivers12VMWARESVGAII13WriteRegisterEjj
c010c428 T _ZN8HeisenOs6system7drivers12VMWARESVGAII12ReadRegisterEj
c010c45e T _ZN8HeisenOs6system7drivers12VMWARESVGAII10InitializeEv
c010c5b0 T _ZN8HeisenOs6system7drivers12VMWARESVGAII19SelectBestVideoModeEv
c010c617 T _ZThn12_N8HeisenOs6system7drivers12VMWARESVGAII19SelectBestVideoModeEv
c010c61e W _ZN8HeisenOs6system7drivers12VMWARESVGAIID1Ev
c010c61e W _ZN8HeisenOs6system7drivers12VMWARESVGAIID2Ev
c010c64e W _ZThn12_N8HeisenOs6system7drivers12VMWARESVGAIID1Ev
c010c656 W _ZN8HeisenOs6system7drivers12VMWARESVGAIID0Ev
c010c67c W _ZThn12_N8HeisenOs6system7drivers12VMWARESVGAIID0Ev
c010c684 t _ZN8HeisenOs4coreL7inportbEt
c010c6a1 t _ZN8HeisenOs4coreL8outportbEth
c010c6c0 T _ZN8HeisenOs6system7drivers17PS2KeyboardDriverC1Ev
c010c6c0 T _ZN8HeisenOs6system7drivers17PS2KeyboardDriverC2Ev
c010c749 T _Z12ReadyForReadv
c010c79b T _Z13ReadyForWritev
c010c7e3 T _Z11SendCommandhh
c010c850 T _ZN8HeisenOs6system7drivers17PS2KeyboardDriver10InitializeEv
c010c916 T _ZThn20_N8HeisenOs6system7drivers17PS2KeyboardDriver10InitializeEv
c010c920 T _ZN8HeisenOs6system7drivers17PS2KeyboardDriver15HandleInterruptEj
c010c9da T _ZN8HeisenOs6system7drivers17PS2KeyboardDriver10UpdateLEDSEv
c010ca5b T _ZThn4_N8HeisenOs6system7drivers17PS2KeyboardDriver10UpdateLEDSEv
c010ca66 W _ZN8HeisenOs6common4ListIPNS_6system8KeyboardEE9push_backERKS4_
c010ca82 W _ZN8HeisenOs6common4ListIPNS_6system8KeyboardEE14insertInternalERKS4_PNS0_8ListNodeIS4_EE
c010cb40 W _ZN8HeisenOs6common8ListNodeIPNS_6system8KeyboardEEC1ERKS4_
c010cb40 W _ZN8HeisenOs6common8ListNodeIPNS_6system8KeyboardEEC2ERKS4_
c010cb64 W _ZN8HeisenOs6system7drivers17PS2KeyboardDriverD1Ev
c010cb64 W _ZN8HeisenOs6system7drivers17PS2KeyboardDriverD2Ev
c010cbaa W _ZThn32_N8HeisenOs6system7drivers17PS2KeyboardDriverD1Ev
c010cbb2 W _ZN8HeisenOs6system7drivers17PS2KeyboardDriverD0Ev
c010cbd8 W _ZThn32_N8HeisenOs6system7drivers17PS2KeyboardDriverD0Ev
c010cbe0 t _ZN8HeisenOs4coreL7inportbEt
c010cbfd t _ZN8HeisenOs4coreL8outportbEth
c010cc1c T _ZN8HeisenOs6system7drivers14PS2MouseDriverC1Ev
c010cc1c T _ZN8HeisenOs6system7drivers14PS2MouseDriverC2Ev
c010cc92 T _ZN8HeisenOs6system7drivers14PS2MouseDriver10InitializeEv
c010cdba T _ZThn4_N8HeisenOs6system7drivers14PS2MouseDriver10InitializeEv
c010cdc4 T _ZN8HeisenOs6system7drivers14PS2MouseDriver17EnableScrollWheelEv
c010ceb6 T _ZN8HeisenOs6system7drivers14PS2MouseDriver13SetSampleRateEh
c010cf14 T _ZN8HeisenOs6system7drivers14PS2MouseDriver15HandleInterruptEj
c010d044 T _ZN8HeisenOs6system7drivers14PS2MouseDriver13ProcessPacketEv
c010d1de W _Z9mouseWaitb
c010d28d W _Z10mouseWriteh
c010d2da W _Z9mouseReadv
c010d2fc t _ZN8HeisenOs4coreL7inportbEt
c010d319 t _ZN8HeisenOs4coreL8outportbEth
c010d338 T _ZN8HeisenOs6system7drivers12FloppyDriverC1Ev
c010d338 T _ZN8HeisenOs6system7drivers12FloppyDriverC2Ev
c010d3d0 T _ZN8HeisenOs6system7drivers12FloppyDriver10InitializeEv
c010d690 T _ZThn4_N8HeisenOs6system7drivers12FloppyDriver10InitializeEv
c010d69a T _ZN8HeisenOs6system7drivers12FloppyDriver13InitializeDMAENS1_15FloppyDirectionE
c010d7b4 T _ZN8HeisenOs6system7drivers12FloppyDriver15HandleInterruptEj
c010d7c4 T _ZN8HeisenOs6system7drivers12FloppyDriver10WaitForIRQEv
c010d7e8 T _ZN8HeisenOs6system7drivers12FloppyDriver8WriteDOREh
c010d80a T _ZN8HeisenOs6system7drivers12FloppyDriver8WriteCCREh
c010d82c T _ZN8HeisenOs6system7drivers12FloppyDriver10ReadStatusEv
c010d83e T _ZN8HeisenOs6system7drivers12FloppyDriver11SendCommandEh
c010d888 T _ZN8HeisenOs6system7drivers12FloppyDriver8ReadDataEv
c010d8d6 T _ZN8HeisenOs6system7drivers12FloppyDriver14CheckIntStatusEPjS3_
c010d910 T _ZN8HeisenOs6system7drivers12FloppyDriver12ControlMotorEhb
c010d9a4 T _ZN8HeisenOs6system7drivers12FloppyDriver14ConfigureDriveEhhhb
c010da2c T _ZN8HeisenOs6system7drivers12FloppyDriver9CalibrateEh
c010daf6 T _ZN8HeisenOs6system7drivers12FloppyDriver4SeekEhhh
c010db96 T _ZN8HeisenOs6system7drivers12FloppyDriver17DisableControllerEv
c010dbaa T _ZN8HeisenOs6system7drivers12FloppyDriver16EnableControllerEv
c010dbbe T _ZN8HeisenOs6system7drivers12FloppyDriver15ResetControllerEv
c010dc68 T _ZN8HeisenOs6system7drivers12FloppyDriver17TransferSectorCHSEhNS1_15FloppyDirectionEhhh
c010e069 T _Z14FloppyLBAToCHSiPiS_S_
c010e0f8 T _ZN8HeisenOs6system7drivers12FloppyDriver10ReadSectorEtjPh
c010e1f7 T _ZThn16_N8HeisenOs6system7drivers12FloppyDriver10ReadSectorEtjPh
c010e202 T _ZN8HeisenOs6system7drivers12FloppyDriver11WriteSectorEtjPh
c010e301 T _ZThn16_N8HeisenOs6system7drivers12FloppyDriver11WriteSectorEtjPh
c010e30c T _ZN8HeisenOs6system7drivers12FloppyDriver10EjectDriveEh
c010e31f T _ZThn16_N8HeisenOs6system7drivers12FloppyDriver10EjectDriveEh
c010e326 T _ZN8HeisenOs6system7drivers20USBMassStorageDriverC1EPNS0_9USBDeviceE
c010e326 T _ZN8HeisenOs6system7drivers20USBMassStorageDriverC2EPNS0_9USBDeviceE
c010e3b0 T _ZN8HeisenOs6system7drivers20USBMassStorageDriver10InitializeEv
c010e8cc T _ZN8HeisenOs6system7drivers20USBMassStorageDriver23SCSIPrepareCommandBlockEhiyi
c010ecd8 T _ZN8HeisenOs6system7drivers20USBMassStorageDriver13ResetRecoveryEv
c010ee52 T _ZN8HeisenOs6system7drivers20USBMassStorageDriver11SCSIRequestEPNS1_19CommandBlockWrapperEPhi
c010f360 T _ZN8HeisenOs6system7drivers20USBMassStorageDriver12DeInitializeEv
c010f382 T _ZN8HeisenOs6system7drivers20USBMassStorageDriver10ReadSectorEjPh
c010f444 T _ZThn16_N8HeisenOs6system7drivers20USBMassStorageDriver10ReadSectorEjPh
c010f44e T _ZN8HeisenOs6system7drivers20USBMassStorageDriver11WriteSectorEjPh
c010f510 T _ZThn16_N8HeisenOs6system7drivers20USBMassStorageDriver11WriteSectorEjPh
c010f51a W _ZN8HeisenOs6common4ListIPNS_6system11USBEndpointEE5beginEv
c010f53c W _ZN8HeisenOs6common4ListIPNS_6system11USBEndpointEE3endEv
c010f55a W _ZN8HeisenOs6common4ListIPNS_6system11USBEndpointEE8iteratorneERKS6_
c010f56e W _ZN8HeisenOs6common4ListIPNS_6system11USBEndpointEE8iteratorppEv
c010f590 W _ZN8HeisenOs6common4ListIPNS_6system11USBEndpointEE8iteratordeEv
c010f59a W _ZN8HeisenOs6common4ListIPNS_6system11USBEndpointEEixEi
c010f5b4 W _ZN8HeisenOs6common4ListIPNS_6system11USBEndpointEE8iteratorC1EPNS0_8ListNodeIS4_EE
c010f5b4 W _ZN8HeisenOs6common4ListIPNS_6system11USBEndpointEE8iteratorC2EPNS0_8ListNodeIS4_EE
c010f5c2 W _ZN8HeisenOs6common4ListIPNS_6system11USBEndpointEE5GetAtEi
c010f620 W _ZN8HeisenOs6system7drivers20USBMassStorageDriverD1Ev
c010f620 W _ZN8HeisenOs6system7drivers20USBMassStorageDriverD2Ev
c010f64e W _ZN8HeisenOs6system7drivers20USBMassStorageDriverD0Ev
c010f674 T _ZN8HeisenOs6system7drivers16USBComboReceiverC1EPNS0_9USBDeviceE
c010f674 T _ZN8HeisenOs6system7drivers16USBComboReceiverC2EPNS0_9USBDeviceE
c010f6fc T _ZN8HeisenOs6system7drivers16USBComboReceiver10InitializeEv
c010fa88 T _ZN8HeisenOs6system7drivers16USBComboReceiver12DeInitializeEv
c010fa8e T _ZN8HeisenOs6system7drivers16USBComboReceiver21HandleInterruptPacketEPNS0_17InterruptTransferE
c010fda8 W _ZN8HeisenOs6system7drivers16USBComboReceiverD1Ev
c010fda8 W _ZN8HeisenOs6system7drivers16USBComboReceiverD2Ev
c010fdd6 W _ZN8HeisenOs6system7drivers16USBComboReceiverD0Ev
c010fdfc T _ZN8HeisenOs6system9USBDriverC1EPNS0_9USBDeviceEPc
c010fdfc T _ZN8HeisenOs6system9USBDriverC2EPNS0_9USBDeviceEPc
c010fe2c T _ZN8HeisenOs6system9USBDriverD1Ev
c010fe2c T _ZN8HeisenOs6system9USBDriverD2Ev
c010fe56 T _ZN8HeisenOs6system9USBDriverD0Ev
c010fe7c T _ZN8HeisenOs6system9USBDriver12DeInitializeEv
c010fe9c T _ZN8HeisenOs6system9USBDriver21HandleInterruptPacketEPNS0_17InterruptTransferE
c010fec0 t _ZN8HeisenOs4coreL7inportbEt
c010fedd t _ZN8HeisenOs4coreL8outportbEth
c010fefc t _ZN8HeisenOs4coreL7inportwEt
c010ff1b t _ZN8HeisenOs4coreL8outportwEtt
c010ff3c t _ZN8HeisenOs4coreL7inportlEt
c010ff58 t _ZN8HeisenOs4coreL8outportlEtj
c010ff70 T _ZN8HeisenOs6system7drivers14UHCIControllerC1EPNS0_9PCIDeviceE
c010ff70 T _ZN8HeisenOs6system7drivers14UHCIControllerC2EPNS0_9PCIDeviceE
c011002a T _ZN8HeisenOs6system7drivers14UHCIController11InsertQueueEPNS1_15uhci_queue_headEji
c01100c4 T _ZN8HeisenOs6system7drivers14UHCIController11RemoveQueueEPNS1_15uhci_queue_headEi
c0110130 T _ZN8HeisenOs6system7drivers14UHCIController22CalculateRequiredQueueEi
c011019a T _ZN8HeisenOs6system7drivers14UHCIController10InitializeEv
c0110401 T _ZThn24_N8HeisenOs6system7drivers14UHCIController10InitializeEv
c011040c T _ZN8HeisenOs6system7drivers14UHCIController5SetupEv
c01106e0 T _ZN8HeisenOs6system7drivers14UHCIController14SetupNewDeviceEh
c011086c T _ZN8HeisenOs6system7drivers14UHCIController22ControllerChecksThreadEv
c011096c T _ZN8HeisenOs6system7drivers14UHCIController11PortPresentEh
c0110ada T _ZN8HeisenOs6system7drivers14UHCIController9ResetPortEh
c0110c3a T _ZN8HeisenOs6system7drivers14UHCIController17CheckTransferDoneEPNS1_22u_transferDescriptor_tEi
c0110ca0 T _ZN8HeisenOs6system7drivers14UHCIController9ControlInEPvbiiihhttt
c011105a T _ZN8HeisenOs6system7drivers14UHCIController10ControlOutEbiiihhttt
c011128e T _ZN8HeisenOs6system7drivers14UHCIController7BulkOutEbiiiPvi
c01114a6 T _ZN8HeisenOs6system7drivers14UHCIController6BulkInEbiiiPvi
c0111706 T _ZN8HeisenOs6system7drivers14UHCIController11InterruptInEbiiiiPNS0_9USBDriverEi
c01119be T _ZN8HeisenOs6system7drivers14UHCIController15HandleInterruptEj
c0111dca T _ZThn36_N8HeisenOs6system7drivers14UHCIController15HandleInterruptEj
c0111dd4 T _ZN8HeisenOs6system7drivers14UHCIController6BulkInEPNS0_9USBDeviceEPvii
c0111e2a T _ZN8HeisenOs6system7drivers14UHCIController7BulkOutEPNS0_9USBDeviceEPvii
c0111e80 T _ZN8HeisenOs6system7drivers14UHCIController9ControlInEPNS0_9USBDeviceEPvihhttt
c0111f0a T _ZN8HeisenOs6system7drivers14UHCIController10ControlOutEPNS0_9USBDeviceEihhttt
c0111f92 T _ZN8HeisenOs6system7drivers14UHCIController11InterruptInEPNS0_9USBDeviceEii
c0112010 W _ZN8HeisenOs6common4ListIPNS_6system17InterruptTransferEE9push_backERKS4_
c011202c W _ZN8HeisenOs6common4ListIPNS_6system17InterruptTransferEE5beginEv
c011204e W _ZN8HeisenOs6common4ListIPNS_6system17InterruptTransferEE3endEv
c011206c W _ZN8HeisenOs6common4ListIPNS_6system17InterruptTransferEE8iteratorneERKS6_
c0112080 W _ZN8HeisenOs6common4ListIPNS_6system17InterruptTransferEE8iteratorppEv
c01120a2 W _ZN8HeisenOs6common4ListIPNS_6system17InterruptTransferEE8iteratordeEv
c01120ac W _ZN8HeisenOs6common4ListIPNS_6system17InterruptTransferEE6RemoveERKS4_
c0112100 W _ZN8HeisenOs6common4ListIPNS_6system17InterruptTransferEE14insertInternalERKS4_PNS0_8ListNodeIS4_EE
c01121be W _ZN8HeisenOs6common4ListIPNS_6system17InterruptTransferEE8iteratorC1EPNS0_8ListNodeIS4_EE
c01121be W _ZN8HeisenOs6common4ListIPNS_6system17InterruptTransferEE8iteratorC2EPNS0_8ListNodeIS4_EE
c01121cc W _ZN8HeisenOs6common4ListIPNS_6system17InterruptTransferEE5GetAtEi
c011222a W _ZN8HeisenOs6common4ListIPNS_6system17InterruptTransferEE6RemoveEi
c011226a W _ZN8HeisenOs6common8ListNodeIPNS_6system17InterruptTransferEEC1ERKS4_
c011226a W _ZN8HeisenOs6common8ListNodeIPNS_6system17InterruptTransferEEC2ERKS4_
c011228e W _ZN8HeisenOs6common4ListIPNS_6system17InterruptTransferEE14removeInternalEPNS0_8ListNodeIS4_EE
c0112348 t _ZN8HeisenOs4coreL11writeMemRegEjj
c0112356 t _ZN8HeisenOs4coreL10readMemRegEj
c0112360 T _ZN8HeisenOs6system7drivers14OHCIControllerC1EPNS0_9PCIDeviceE
c0112360 T _ZN8HeisenOs6system7drivers14OHCIControllerC2EPNS0_9PCIDeviceE
c01123e8 T _ZN8HeisenOs6system7drivers14OHCIController10InitializeEv
c011262a T _ZThn24_N8HeisenOs6system7drivers14OHCIController10InitializeEv
c0112634 T _ZN8HeisenOs6system7drivers14OHCIController5SetupEv
c0112c26 T _ZN8HeisenOs6system7drivers14OHCIController14SetupNewDeviceEh
c0112d9e T _ZN8HeisenOs6system7drivers14OHCIController22ControllerChecksThreadEv
c0112e96 T _ZN8HeisenOs6system7drivers14OHCIController9ResetPortEh
c0112f7a T _ZN8HeisenOs6system7drivers14OHCIController10ControlOutEbiiihhttt
c01131ea T _ZN8HeisenOs6system7drivers14OHCIController9ControlInEPvbiiihhttt
c01135ea T _ZN8HeisenOs6system7drivers14OHCIController7BulkOutEbiiiPvi
c0113894 T _ZN8HeisenOs6system7drivers14OHCIController6BulkInEbiiiPvi
c0113b7e T _ZN8HeisenOs6system7drivers14OHCIController22CalculateRequiredQueueEi
c0113c32 T _ZN8HeisenOs6system7drivers14OHCIController11InterruptInEbiiiiPNS0_9USBDriverEi
c0113ef0 T _ZN8HeisenOs6system7drivers14OHCIController17CheckTransferDoneEPNS1_7OHCI_TDEi
c0113f64 T _ZN8HeisenOs6system7drivers14OHCIController15HandleInterruptEj
c011435d T _ZThn36_N8HeisenOs6system7drivers14OHCIController15HandleInterruptEj
c0114368 T _ZN8HeisenOs6system7drivers14OHCIController6BulkInEPNS0_9USBDeviceEPvii
c01143be T _ZN8HeisenOs6system7drivers14OHCIController7BulkOutEPNS0_9USBDeviceEPvii
c0114414 T _ZN8HeisenOs6system7drivers14OHCIController9ControlInEPNS0_9USBDeviceEPvihhttt
c011449e T _ZN8HeisenOs6system7drivers14OHCIController10ControlOutEPNS0_9USBDeviceEihhttt
c0114526 T _ZN8HeisenOs6system7drivers14OHCIController11InterruptInEPNS0_9USBDeviceEii
c01145a4 t _ZN8HeisenOs4coreL11writeMemRegEjj
c01145b2 t _ZN8HeisenOs4coreL10readMemRegEj
c01145bc T _ZN8HeisenOs6system7drivers14EHCIControllerC1EPNS0_9PCIDeviceE
c01145bc T _ZN8HeisenOs6system7drivers14EHCIControllerC2EPNS0_9PCIDeviceE
c011468e T _ZN8HeisenOs6system7drivers14EHCIController10InitializeEv
c0114a0e T _ZThn24_N8HeisenOs6system7drivers14EHCIController10InitializeEv
c0114a18 T _ZN8HeisenOs6system7drivers14EHCIController15ResetControllerEv
c0114aaa T _ZN8HeisenOs6system7drivers14EHCIController19InitializeAsyncListEv
c0114b8e T _ZN8HeisenOs6system7drivers14EHCIController22InitializePeriodicListEv
c0114bc2 T _ZN8HeisenOs6system7drivers14EHCIController5SetupEv
c0114eca T _ZN8HeisenOs6system7drivers14EHCIController15HandleInterruptEj
c0114f5a T _ZThn36_N8HeisenOs6system7drivers14EHCIController15HandleInterruptEj
c0114f64 T _ZN8HeisenOs6system7drivers14EHCIController22ControllerChecksThreadEv
c0115052 T _ZN8HeisenOs6system7drivers14EHCIController9ResetPortEh
c011520a T _ZN8HeisenOs6system7drivers14EHCIController15WaitForRegisterEjjjj
c011525e T _ZN8HeisenOs6system7drivers14EHCIController14SetupNewDeviceEi
c011533c T _ZN8HeisenOs6system7drivers14EHCIController10StopLegacyEj
c011547c T _ZN8HeisenOs6system7drivers14EHCIController21MakeSetupTransferDescEPNS1_20e_transferDescriptorEjj
c0115506 T _ZN8HeisenOs6system7drivers14EHCIController16MakeTransferDescEPNS1_20e_transferDescriptorEjS4_jjibhht
c0115644 T _ZN8HeisenOs6system7drivers14EHCIController15InsertIntoQueueEPNS1_11e_queueHeadEjh
c01156a2 T _ZN8HeisenOs6system7drivers14EHCIController15RemoveFromQueueEPNS1_11e_queueHeadE
c011574a T _ZN8HeisenOs6system7drivers14EHCIController23WaitForTransferCompleteEPNS1_20e_transferDescriptorEjPb
c0115950 T _ZN8HeisenOs6system7drivers14EHCIController10ControlOutEiiihhttt
c0115b10 T _ZN8HeisenOs6system7drivers14EHCIController9ControlInEPviiihhttt
c0115da0 T _ZN8HeisenOs6system7drivers14EHCIController7BulkOutEPNS0_11USBEndpointEiiiPvi
c0115f40 T _ZN8HeisenOs6system7drivers14EHCIController6BulkInEPNS0_11USBEndpointEiiiPvi
c01160e6 T _ZN8HeisenOs6system7drivers14EHCIController9ReadOpRegEj
c011610c T _ZN8HeisenOs6system7drivers14EHCIController10WriteOpRegEjj
c0116136 T _ZN8HeisenOs6system7drivers14EHCIController16DisplayRegistersEv
c01163e0 T _ZN8HeisenOs6system7drivers14EHCIController24PrintTransferDescriptorsEPNS1_20e_transferDescriptorE
c0116512 T _ZN8HeisenOs6system7drivers14EHCIController14PrintQueueHeadEPNS1_11e_queueHeadE
c01167c4 T _ZN8HeisenOs6system7drivers14EHCIController15PrintAsyncQueueEv
c0116872 T _ZN8HeisenOs6system7drivers14EHCIController6BulkInEPNS0_9USBDeviceEPvii
c01168dc T _ZN8HeisenOs6system7drivers14EHCIController7BulkOutEPNS0_9USBDeviceEPvii
c0116946 T _ZN8HeisenOs6system7drivers14EHCIController9ControlInEPNS0_9USBDeviceEPvihhttt
c01169b6 T _ZN8HeisenOs6system7drivers14EHCIController10ControlOutEPNS0_9USBDeviceEihhttt
c0116a24 T _ZN8HeisenOs6system7drivers14EHCIController11InterruptInEPNS0_9USBDeviceEii
c0116a2a T _ZN8HeisenOs6system7drivers11USBKeyboardC1EPNS0_9USBDeviceE
c0116a2a T _ZN8HeisenOs6system7drivers11USBKeyboardC2EPNS0_9USBDeviceE
c0116a94 T _ZN8HeisenOs6system7drivers11USBKeyboard10InitializeEv
c0116c44 T _ZN8HeisenOs6system7drivers11USBKeyboard12DeInitializeEv
c0116c6e T _ZN8HeisenOs6system7drivers11USBKeyboard21HandleInterruptPacketEPNS0_17InterruptTransferE
c0116e00 T _ZN8HeisenOs6system7drivers11USBKeyboard10UpdateLEDSEv
c0116e7a T _ZThn16_N8HeisenOs6system7drivers11USBKeyboard10UpdateLEDSEv
c0116e84 W _ZN8HeisenOs6common4ListIPNS_6system8KeyboardEE6RemoveERKS4_
c0116ed8 W _ZN8HeisenOs6common4ListIPNS_6system8KeyboardEE5GetAtEi
c0116f36 W _ZN8HeisenOs6common4ListIPNS_6system8KeyboardEE6RemoveEi
c0116f76 W _ZN8HeisenOs6common4ListIPNS_6system8KeyboardEE14removeInternalEPNS0_8ListNodeIS4_EE
c0117030 W _ZN8HeisenOs6system7drivers11USBKeyboardD1Ev
c0117030 W _ZN8HeisenOs6system7drivers11USBKeyboardD2Ev
c011705e W _ZN8HeisenOs6system7drivers11USBKeyboardD0Ev
c0117084 T _ZN8HeisenOs6system7drivers8USBMouseC1EPNS0_9USBDeviceE
c0117084 T _ZN8HeisenOs6system7drivers8USBMouseC2EPNS0_9USBDeviceE
c01170c6 T _ZN8HeisenOs6system7drivers8USBMouse14GetHIDPropertyEPNS0_8HID_DATAEPhiNS0_9HID_USAGEE
c0117152 T _ZN8HeisenOs6system7drivers8USBMouse10InitializeEv
c0117412 T _ZN8HeisenOs6system7drivers8USBMouse12DeInitializeEv
c0117418 T _ZN8HeisenOs6system7drivers8USBMouse21HandleInterruptPacketEPNS0_17InterruptTransferE
c0117618 W _ZN8HeisenOs6system7drivers8USBMouseD1Ev
c0117618 W _ZN8HeisenOs6system7drivers8USBMouseD2Ev
c011763a W _ZN8HeisenOs6system7drivers8USBMouseD0Ev
c0117664 T _ZN8HeisenOs6system7drivers6DriverC1EPcS3_
c0117664 T _ZN8HeisenOs6system7drivers6DriverC2EPcS3_
c0117686 T _ZN8HeisenOs6system7drivers6Driver13GetDriverNameEv
c0117692 T _ZN8HeisenOs6system7drivers6Driver20GetDriverDescriptionEv
c011769e T _ZN8HeisenOs6system7drivers6Driver10InitializeEv
c01176c2 t _ZN8HeisenOs4coreL7inportbEt
c01176df t _ZN8HeisenOs4coreL8outportbEth
c01176fe t _ZN8HeisenOs4coreL7inportwEt
c011771d t _ZN8HeisenOs4coreL8outportlEtj
c0117736 T _ZN8HeisenOs6system7drivers19IDEInterruptHandlerC1EPNS1_13IDEControllerEh
c0117736 T _ZN8HeisenOs6system7drivers19IDEInterruptHandlerC2EPNS1_13IDEControllerEh
c0117794 T _ZN8HeisenOs6system7drivers19IDEInterruptHandler15HandleInterruptEj
c01177be T _ZN8HeisenOs6system7drivers13IDEControllerC1EPNS0_9PCIDeviceE
c01177be T _ZN8HeisenOs6system7drivers13IDEControllerC2EPNS0_9PCIDeviceE
c0117894 T _ZN8HeisenOs6system7drivers13IDEController12ReadRegisterEhh
c011798a T _ZN8HeisenOs6system7drivers13IDEController13WriteRegisterEhhh
c0117a8c T _ZN8HeisenOs6system7drivers13IDEController12WaitForClearEhhhjb
c0117b34 T _ZN8HeisenOs6system7drivers13IDEController10WaitForSetEhhhjb
c0117bdc T _ZN8HeisenOs6system7drivers13IDEController9HandleIRQEj
c0117c08 T _ZN8HeisenOs6system7drivers13IDEController10InitializeEv
c0118998 T _ZN8HeisenOs6system7drivers13IDEController22ATA_DMA_TransferSectorEtjPhb
c0118d1e T _ZN8HeisenOs6system7drivers13IDEController24ATAPI_DMA_TransferSectorEttPh
c0118f4a T _ZN8HeisenOs6system7drivers13IDEController22ATA_PIO_TransferSectorEtjPhb
c011920c T _ZN8HeisenOs6system7drivers13IDEController24ATAPI_PIO_TransferSectorEttPh
c011931e T _ZN8HeisenOs6system7drivers13IDEController10ReadSectorEtjPh
c011946e T _ZThn12_N8HeisenOs6system7drivers13IDEController10ReadSectorEtjPh
c0119478 T _ZN8HeisenOs6system7drivers13IDEController11WriteSectorEtjPh
c0119574 T _ZThn12_N8HeisenOs6system7drivers13IDEController11WriteSectorEtjPh
c011957e T _ZN8HeisenOs6system7drivers13IDEController10EjectDriveEh
c011966e T _ZThn12_N8HeisenOs6system7drivers13IDEController10EjectDriveEh
c0119678 t _ZN8HeisenOs4coreL8outportwEtt
c0119699 t _ZN8HeisenOs4coreL8inportsmEtPhm
c01196cd t _ZN8HeisenOs4coreL9outportsmEtPhm
c0119702 W _ZN8HeisenOs6system7drivers13IDEController9Wait400NSEh
c011979e W _ZN8HeisenOs6system7drivers13IDEController25SetChannelInterruptEnableEhb
c01197d8 W _ZN8HeisenOs6system7drivers13IDEController16SetDeviceFeatureEhhhhhh
c01198d2 W _ZN8HeisenOs6system7drivers13IDEController14SetCountAndLBAEhtjb
c01199c2 W _ZN8HeisenOs6system7drivers13IDEController11PrepareSCSIEhjtb
c0119a6a W _ZN8HeisenOs6system7drivers13IDEController7PollingEhb
c0119b1a W _ZN8HeisenOs6system7drivers13IDEController11PIOReadDataEhbPhj
c0119c28 W _ZN8HeisenOs6system7drivers13IDEController12PIOWriteDataEhbPhj
c0119cf6 W _ZN8HeisenOs6system7drivers13IDEController17SendPacketCommandEhhjtbb
c0119e4a W _ZN8HeisenOs6system7drivers13IDEController10WaitForIRQEv
c0119e94 W _ZN8HeisenOs6common4ListIPNS_6system7drivers9IDEDeviceEEC1Ev
c0119e94 W _ZN8HeisenOs6common4ListIPNS_6system7drivers9IDEDeviceEEC2Ev
c0119ecc W _ZN8HeisenOs6common4ListIPNS_6system7drivers9IDEDeviceEED1Ev
c0119ecc W _ZN8HeisenOs6common4ListIPNS_6system7drivers9IDEDeviceEED2Ev
c0119ee4 W _ZN8HeisenOs6common4ListIPNS_6system7drivers9IDEDeviceEE9push_backERKS5_
c0119f00 W _ZN8HeisenOs6common4ListIPNS_6system7drivers9IDEDeviceEE4sizeEv
c0119f0c W _ZN8HeisenOs6common4ListIPNS_6system7drivers9IDEDeviceEEixEi
c0119f26 W _ZN8HeisenOs6common4ListIPNS_6system7drivers9IDEDeviceEE5ClearEv
c0119fa4 W _ZN8HeisenOs6common4ListIPNS_6system7drivers9IDEDeviceEE14insertInternalERKS5_PNS0_8ListNodeIS5_EE
c011a062 W _ZN8HeisenOs6common4ListIPNS_6system7drivers9IDEDeviceEE5GetAtEi
c011a0c0 W _ZN8HeisenOs6common8ListNodeIPNS_6system7drivers9IDEDeviceEEC1ERKS5_
c011a0c0 W _ZN8HeisenOs6common8ListNodeIPNS_6system7drivers9IDEDeviceEEC2ERKS5_
c011a0e4 T _ZN8HeisenOs6system7drivers8AHCIPort15FindFreeCMDSlotEv
c011a142 T _ZN8HeisenOs6system7drivers8AHCIPortC1EPNS1_14AHCIControllerEji
c011a142 T _ZN8HeisenOs6system7drivers8AHCIPortC2EPNS1_14AHCIControllerEji
c011a1b6 T _ZN8HeisenOs6system7drivers8AHCIPortD1Ev
c011a1b6 T _ZN8HeisenOs6system7drivers8AHCIPortD2Ev
c011a206 T _ZN8HeisenOs6system7drivers8AHCIPort11PreparePortEv
c011a3e8 T _ZN8HeisenOs6system7drivers8AHCIPort11StartupPortEv
c011a68a T _ZN8HeisenOs6system7drivers8AHCIPort7GetTypeEv
c011a71c T _ZN8HeisenOs6system7drivers8AHCIPort6EnableEv
c011a772 T _ZN8HeisenOs6system7drivers8AHCIPort7DisableEv
c011a7c8 T _ZN8HeisenOs6system7drivers8AHCIPort23HandleExternalInterruptEv
c011a7f8 T _ZN8HeisenOs6system7drivers8AHCIPort8IdentifyEPh
c011aa84 T _ZN8HeisenOs6system7drivers8AHCIPort12TransferDataEbjPhj
c011af94 T _ZN8HeisenOs6system7drivers8AHCIPort5EjectEv
c011b191 t _ZN8HeisenOs4coreL11writeMemRegEjj
c011b19f t _ZN8HeisenOs4coreL10readMemRegEj
c011b1aa W _ZN8HeisenOs6system7drivers8AHCIPort12readRegisterEj
c011b1c2 W _ZN8HeisenOs6system7drivers8AHCIPort13writeRegisterEjj
c011b1de W _ZN8HeisenOs6system7drivers8AHCIPort12waitForClearEjjj
c011b236 T _ZN8HeisenOs6system7drivers14AHCIControllerC1EPNS0_9PCIDeviceE
c011b236 T _ZN8HeisenOs6system7drivers14AHCIControllerC2EPNS0_9PCIDeviceE
c011b2f6 T _ZN8HeisenOs6system7drivers14AHCIController10InitializeEv
c011b67e T _ZN8HeisenOs6system7drivers14AHCIController5ResetEv
c011b780 T _ZN8HeisenOs6system7drivers14AHCIController15HandleInterruptEj
c011b82e T _ZThn12_N8HeisenOs6system7drivers14AHCIController15HandleInterruptEj
c011b838 T _ZN8HeisenOs6system7drivers14AHCIController10ReadSectorEtjPh
c011b87b T _ZThn16_N8HeisenOs6system7drivers14AHCIController10ReadSectorEtjPh
c011b882 T _ZN8HeisenOs6system7drivers14AHCIController11WriteSectorEtjPh
c011b8c5 T _ZThn16_N8HeisenOs6system7drivers14AHCIController11WriteSectorEtjPh
c011b8cc T _ZN8HeisenOs6system7drivers14AHCIController10EjectDriveEh
c011b909 T _ZThn16_N8HeisenOs6system7drivers14AHCIController10EjectDriveEh
c011b910 t _ZN8HeisenOs4coreL11writeMemRegEjj
c011b91e t _ZN8HeisenOs4coreL10readMemRegEj
c011b928 W _ZN8HeisenOs6system7drivers14AHCIController12readRegisterEj
c011b944 W _ZN8HeisenOs6system7drivers14AHCIController13writeRegisterEjj
c011b964 W _ZN8HeisenOs6system7drivers14AHCIController12waitForClearEjjj
c011b9bc T _ZN8HeisenOs6system7drivers10PCIDrivers20AssignDriversFromPCIEPNS0_13PCIControllerEPNS1_13DriverManagerE
c011bca6 W _ZN8HeisenOs6common4ListIPNS_6system9PCIDeviceEE4sizeEv
c011bcb2 W _ZN8HeisenOs6common4ListIPNS_6system9PCIDeviceEEixEi
c011bccc W _ZN8HeisenOs6common4ListIPNS_6system9PCIDeviceEE5GetAtEi
c011bd2a T _ZN8HeisenOs6system10DeviceHeap13AllocateChunkEj
c011bdd2 T _ZN8HeisenOs6system10KernelHeap10InitializeEjj
c011beb6 T _ZN8HeisenOs6system10KernelHeap9FirstFreeEj
c011bf04 T _ZN8HeisenOs6system10KernelHeap16InternalAllocateEj
c011c010 T _ZN8HeisenOs6system10KernelHeap4freeEPv
c011c158 T _ZN8HeisenOs6system10KernelHeap6mallocEjPj
c011c1d6 T _ZN8HeisenOs6system10KernelHeap13alignedMallocEjjPj
c011c28e T _ZN8HeisenOs6system10KernelHeap12allignedFreeEPv
c011c2c8 T _ZN8HeisenOs6system10KernelHeap14CheckForErrorsEv
c011c394 T _ZN8HeisenOs6system10KernelHeap10UsedMemoryEv
c011c446 t _Z41__static_initialization_and_destruction_0v
c011c45f t _GLOBAL__sub_I__ZN8HeisenOs6system10KernelHeap12startAddressE
c011c46c T _ZN8HeisenOs6system10FIFOStreamC1Ei
c011c46c T _ZN8HeisenOs6system10FIFOStreamC2Ei
c011c4e2 T _ZN8HeisenOs6system10FIFOStreamD1Ev
c011c4e2 T _ZN8HeisenOs6system10FIFOStreamD2Ev
c011c51c T _ZN8HeisenOs6system10FIFOStreamD0Ev
c011c542 T _ZN8HeisenOs6system10FIFOStream5WriteEc
c011c5ce T _ZN8HeisenOs6system10FIFOStream4ReadEv
c011c640 T _ZN8HeisenOs6system10FIFOStream9AvailableEv
c011c64c T _ZN8HeisenOs6system6StreamC1Ev
c011c64c T _ZN8HeisenOs6system6StreamC2Ev
c011c65c T _ZN8HeisenOs6system6StreamD1Ev
c011c65c T _ZN8HeisenOs6system6StreamD2Ev
c011c66c T _ZN8HeisenOs6system6StreamD0Ev
c011c690 T _ZN8HeisenOs6system6Stream4ReadEv
c011c6b0 T _ZN8HeisenOs6system6Stream5WriteEc
c011c6d2 T _ZN8HeisenOs6system6Stream9AvailableEv
c011c6f2 T _ZN8HeisenOs6system12SharedMemory18CreateSharedRegionEPNS0_7ProcessES3_jj
c011c714 T _ZN8HeisenOs6system12SharedMemory18CreateSharedRegionEPNS0_7ProcessES3_jjj
c011c974 T _ZN8HeisenOs6system12SharedMemory18RemoveSharedRegionEPNS0_7ProcessES3_jj
c011c996 T _ZN8HeisenOs6system12SharedMemory18RemoveSharedRegionEPNS0_7ProcessES3_jjj
c011cae2 T _ZN8HeisenOs6system15KeyboardManagerC1Ev
c011cae2 T _ZN8HeisenOs6system15KeyboardManagerC2Ev
c011cb2e T _ZN8HeisenOs6system15KeyboardManager15HandleKeyChangeEPNS0_8KeyboardEjb
c011ce0e T _ZN8HeisenOs6system15KeyboardManager12ConvertToPS2Ej
c011d104 W _ZN15LIBHeisenKernelorENS_15KEYPACKET_FLAGSES0_
c011d112 W _ZN8HeisenOs6common4ListIPNS_6system8KeyboardEEC1Ev
c011d112 W _ZN8HeisenOs6common4ListIPNS_6system8KeyboardEEC2Ev
c011d14a W _ZN8HeisenOs6common4ListIPNS_6system8KeyboardEED1Ev
c011d14a W _ZN8HeisenOs6common4ListIPNS_6system8KeyboardEED2Ev
c011d162 W _ZN8HeisenOs6common4ListIPNS_6system8KeyboardEE5beginEv
c011d184 W _ZN8HeisenOs6common4ListIPNS_6system8KeyboardEE3endEv
c011d1a2 W _ZN8HeisenOs6common4ListIPNS_6system8KeyboardEE8iteratorneERKS6_
c011d1b6 W _ZN8HeisenOs6common4ListIPNS_6system8KeyboardEE8iteratorppEv
c011d1d8 W _ZN8HeisenOs6common4ListIPNS_6system8KeyboardEE8iteratordeEv
c011d1e2 W _ZN8HeisenOs6common4ListIPNS_6system8KeyboardEE5ClearEv
c011d260 W _ZN8HeisenOs6common4ListIPNS_6system8KeyboardEE8iteratorC1EPNS0_8ListNodeIS4_EE
c011d260 W _ZN8HeisenOs6common4ListIPNS_6system8KeyboardEE8iteratorC2EPNS0_8ListNodeIS4_EE
c011d26e W _ZN8HeisenOs6system15KeyboardManagerD1Ev
c011d26e W _ZN8HeisenOs6system15KeyboardManagerD2Ev
c011d2a2 W _ZN8HeisenOs6system15KeyboardManagerD0Ev
c011d2c8 T _ZN8HeisenOs6system8KeyboardC1ENS0_12KeyboardTypeE
c011d2c8 T _ZN8HeisenOs6system8KeyboardC2ENS0_12KeyboardTypeE
c011d2fa T _ZN8HeisenOs6system8Keyboard10UpdateLEDSEv
c011d31a T _ZN8HeisenOs6system8Keyboard11ContainsKeyEhPhPi
c011d360 t _ZN8HeisenOs4coreL7inportbEt
c011d37d t _ZN8HeisenOs4coreL8outportbEth
c011d39c T _ZN8HeisenOs6system10Serialport18SerialReceiveReadyEv
c011d3bc T _ZN8HeisenOs6system10Serialport15SerialSendReadyEv
c011d3dc T _ZN8HeisenOs6system10Serialport4ReadEv
c011d402 T _ZN8HeisenOs6system10Serialport5WriteEc
c011d43a T _ZN8HeisenOs6system10Serialport8WriteStrEPc
c011d478 T _ZN8HeisenOs6system10Serialport4InitENS0_7COMPortE
c011d52a T _ZN8HeisenOs6system17ListingControllerC1Ev
c011d52a T _ZN8HeisenOs6system17ListingControllerC2Ev
c011d560 T _ZN8HeisenOs6system17ListingController12BeginListingEPNS0_6ThreadEj
c011d580 T _ZN8HeisenOs6system17ListingController8GetEntryEPNS0_6ThreadEij
c011d5a0 T _ZN8HeisenOs6system17ListingController10EndListingEPNS0_6ThreadE
c011d5bc W _ZN8HeisenOs6common4ListIPNS_6system6ThreadEEC1Ev
c011d5bc W _ZN8HeisenOs6common4ListIPNS_6system6ThreadEEC2Ev
c011d5f4 T _ZN8HeisenOs6system17SystemInfoManager20HandleSysinfoRequestEPvijb
c011ed0a W _ZN8HeisenOs6common4ListIPNS_6system4DiskEE4sizeEv
c011ed16 W _ZN8HeisenOs6common4ListIPNS_6system4DiskEEixEi
c011ed30 W _ZN8HeisenOs6common4ListIPNS_6system9USBDeviceEE4sizeEv
c011ed3c W _ZN8HeisenOs6common4ListIPNS_6system9USBDeviceEEixEi
c011ed56 W _ZN8HeisenOs6common4ListIPNS_6system13USBControllerEE7IndexOfERKS4_
c011eda2 W _ZN8HeisenOs6common4ListIPNS_6system11USBEndpointEE4sizeEv
c011edae W _ZN8HeisenOs6common4ListIPNS_6system13USBControllerEE4sizeEv
c011edba W _ZN8HeisenOs6common4ListIPNS_6system13USBControllerEEixEi
c011edd4 W _ZN8HeisenOs6common4ListIPNS_6system7ProcessEE4sizeEv
c011ede0 W _ZN8HeisenOs6common4ListIPNS_6system7ProcessEEixEi
c011edfa W _ZN8HeisenOs6common4ListIPNS_6system9USBDeviceEE5GetAtEi
c011ee58 W _ZN8HeisenOs6common4ListIPNS_6system13USBControllerEE5GetAtEi
c011eeb6 W _ZN8HeisenOs6common4ListIPNS_6system7ProcessEE5GetAtEi
c011ef14 T _ZN8HeisenOs6system16DirectoryListingC1Ev
c011ef14 T _ZN8HeisenOs6system16DirectoryListingC2Ev
c011ef36 T _ZN8HeisenOs6system16DirectoryListing12BeginListingEPNS0_6ThreadEj
c011efda T _ZN8HeisenOs6system16DirectoryListing8GetEntryEPNS0_6ThreadEij
c011f084 T _ZN8HeisenOs6system16DirectoryListing10EndListingEPNS0_6ThreadE
c011f132 W _ZN8HeisenOs6common4ListIN15LIBHeisenKernel8VFSEntryEE4sizeEv
c011f13e W _ZN8HeisenOs6common4ListIN15LIBHeisenKernel8VFSEntryEE5GetAtEi
c011f1b8 W _ZN8HeisenOs6common4ListIN15LIBHeisenKernel8VFSEntryEED1Ev
c011f1b8 W _ZN8HeisenOs6common4ListIN15LIBHeisenKernel8VFSEntryEED2Ev
c011f1d0 W _ZN8HeisenOs6common4ListIPNS_6system6ThreadEE4sizeEv
c011f1dc W _ZN8HeisenOs6common4ListIN15LIBHeisenKernel8VFSEntryEE5ClearEv
c011f260 T _ZN8HeisenOs6system11BootConsole6ScrollEv
c011f336 T _ZN8HeisenOs6system11BootConsole4InitEb
c011f374 T _ZN8HeisenOs6system11BootConsole5WriteEc
c011f3a0 T _ZN8HeisenOs6system11BootConsole5WriteEPc
c011f4e6 T _ZN8HeisenOs6system11BootConsole9WriteLineEPc
c011f50e T _ZN8HeisenOs6system11BootConsole9WriteLineEv
c011f528 T _ZN8HeisenOs6system11BootConsole5ClearEv
c011f5c0 T _ZN8HeisenOs6system11BootConsole9GetBufferEv
c011f5ca T _ZN8HeisenOs6system11BootConsole4SetXEi
c011f5d8 T _ZN8HeisenOs6system11BootConsole4SetYEi
c011f5e6 T _ZN8HeisenOs6system9USBDeviceC1Ev
c011f5e6 T _ZN8HeisenOs6system9USBDeviceC2Ev
c011f664 T _ZN8HeisenOs6system9USBDevice12AssignDriverEv
c01200ec T _ZN8HeisenOs6system9USBDeviceD1Ev
c01200ec T _ZN8HeisenOs6system9USBDeviceD2Ev
c012018a T _ZN8HeisenOs6system9USBDevice11OnUnpluggedEv
c01201f2 W _ZN8HeisenOs6common4ListIPNS_6system11USBEndpointEEC1Ev
c01201f2 W _ZN8HeisenOs6common4ListIPNS_6system11USBEndpointEEC2Ev
c012022a W _ZN8HeisenOs6common4ListIPNS_6system11USBEndpointEED1Ev
c012022a W _ZN8HeisenOs6common4ListIPNS_6system11USBEndpointEED2Ev
c0120242 W _ZN8HeisenOs6common4ListIPNS_6system11USBEndpointEE9push_backERKS4_
c012025e W _ZN8HeisenOs6common4ListIPNS_6system11USBEndpointEE5ClearEv
c01202dc W _ZN8HeisenOs6common4ListIPNS_6system11USBEndpointEE14insertInternalERKS4_PNS0_8ListNodeIS4_EE
c012039a W _ZN8HeisenOs6common8ListNodeIPNS_6system11USBEndpointEEC1ERKS4_
c012039a W _ZN8HeisenOs6common8ListNodeIPNS_6system11USBEndpointEEC2ERKS4_
c01203be T _ZN8HeisenOs6system13USBControllerC1ENS0_17USBControllerTypeE
c01203be T _ZN8HeisenOs6system13USBControllerC2ENS0_17USBControllerTypeE
c01203fe T _ZN8HeisenOs6system13USBController5SetupEv
c012041e T _ZN8HeisenOs6system13USBController22ControllerChecksThreadEv
c012043e T _ZN8HeisenOs6system13USBController6BulkInEPNS0_9USBDeviceEPvii
c0120462 T _ZN8HeisenOs6system13USBController7BulkOutEPNS0_9USBDeviceEPvii
c0120486 T _ZN8HeisenOs6system13USBController9ControlInEPNS0_9USBDeviceEPvihhttt
c01204d8 T _ZN8HeisenOs6system13USBController10ControlOutEPNS0_9USBDeviceEihhttt
c012052a T _ZN8HeisenOs6system13USBController11InterruptInEPNS0_9USBDeviceEii
c012054a T _ZN8HeisenOs6system13USBController19GetDeviceDescriptorEPNS0_11DEVICE_DESCEPNS0_9USBDeviceE
c012057c T _ZN8HeisenOs6system13USBController19GetStringDescriptorEPNS0_11STRING_DESCEPNS0_9USBDeviceEtt
c012060e T _ZN8HeisenOs6system13USBController19GetConfigDescriptorEPNS0_9USBDeviceE
c01206ce T _ZN8HeisenOs6system13USBController16SetConfigurationEPNS0_9USBDeviceEh
c0120700 T _ZN8HeisenOs6system13USBController16GetConfigurationEPNS0_9USBDeviceE
c012074c T _ZN8HeisenOs6system13USBController10GetMaxLunsEPNS0_9USBDeviceE
c01207d4 W _ZN8HeisenOs6common4ListIPNS_6system17InterruptTransferEEC1Ev
c01207d4 W _ZN8HeisenOs6common4ListIPNS_6system17InterruptTransferEEC2Ev
c012080c W _ZN8HeisenOs6common4ListIPNS_6system17InterruptTransferEE5ClearEv
c012088a T _ZN8HeisenOs6system11USBEndpointC1EPNS0_13ENDPOINT_DESCE
c012088a T _ZN8HeisenOs6system11USBEndpointC2EPNS0_13ENDPOINT_DESCE
c012091c T _ZN8HeisenOs6system11USBEndpoint6ToggleEv
c012093a T _ZN8HeisenOs6system11USBEndpoint9SetToggleEb
c0120952 T _ZN8HeisenOs6system10USBManagerC1Ev
c0120952 T _ZN8HeisenOs6system10USBManagerC2Ev
c012098a T _ZN8HeisenOs6system10USBManager7USBPollEv
c0120a14 T _ZN8HeisenOs6system10USBManager13AddControllerEPNS0_13USBControllerE
c0120a30 T _ZN8HeisenOs6system10USBManager16RemoveControllerEPNS0_13USBControllerE
c0120a4c T _ZN8HeisenOs6system10USBManager9AddDeviceEPNS0_9USBDeviceE
c0120ae0 T _ZN8HeisenOs6system10USBManager12RemoveDeviceEPNS0_13USBControllerEh
c0120c38 T _ZN8HeisenOs6system10USBManager8SetupAllEv
c0120cbe T _ZN8HeisenOs6system10USBManager16AssignAllDriversEv
c0120daa W _ZN8HeisenOs6common4ListIPNS_6system13USBControllerEEC1Ev
c0120daa W _ZN8HeisenOs6common4ListIPNS_6system13USBControllerEEC2Ev
c0120de2 W _ZN8HeisenOs6common4ListIPNS_6system9USBDeviceEEC1Ev
c0120de2 W _ZN8HeisenOs6common4ListIPNS_6system9USBDeviceEEC2Ev
c0120e1a W _ZN8HeisenOs6common4ListIPNS_6system13USBControllerEE5beginEv
c0120e3c W _ZN8HeisenOs6common4ListIPNS_6system13USBControllerEE3endEv
c0120e5a W _ZN8HeisenOs6common4ListIPNS_6system13USBControllerEE8iteratorneERKS6_
c0120e6e W _ZN8HeisenOs6common4ListIPNS_6system13USBControllerEE8iteratorppEv
c0120e90 W _ZN8HeisenOs6common4ListIPNS_6system13USBControllerEE8iteratordeEv
c0120e9a W _ZN8HeisenOs6common4ListIPNS_6system13USBControllerEE10push_frontERKS4_
c0120eba W _ZN8HeisenOs6common4ListIPNS_6system13USBControllerEE6RemoveERKS4_
c0120f0e W _ZN8HeisenOs6common4ListIPNS_6system9USBDeviceEE9push_backERKS4_
c0120f2a W _ZN8HeisenOs6common4ListIPNS_6system9USBDeviceEE5beginEv
c0120f4c W _ZN8HeisenOs6common4ListIPNS_6system9USBDeviceEE3endEv
c0120f6a W _ZN8HeisenOs6common4ListIPNS_6system9USBDeviceEE8iteratorneERKS6_
c0120f7e W _ZN8HeisenOs6common4ListIPNS_6system9USBDeviceEE8iteratorppEv
c0120fa0 W _ZN8HeisenOs6common4ListIPNS_6system9USBDeviceEE8iteratordeEv
c0120faa W _ZN8HeisenOs6common4ListIPNS_6system9USBDeviceEE6RemoveERKS4_
c0120ffe W _ZN8HeisenOs6common4ListIPNS_6system13USBControllerEE8iteratorC1EPNS0_8ListNodeIS4_EE
c0120ffe W _ZN8HeisenOs6common4ListIPNS_6system13USBControllerEE8iteratorC2EPNS0_8ListNodeIS4_EE
c012100c W _ZN8HeisenOs6common4ListIPNS_6system13USBControllerEE14insertInternalERKS4_PNS0_8ListNodeIS4_EE
c01210ca W _ZN8HeisenOs6common4ListIPNS_6system13USBControllerEE6RemoveEi
c012110a W _ZN8HeisenOs6common4ListIPNS_6system9USBDeviceEE14insertInternalERKS4_PNS0_8ListNodeIS4_EE
c01211c8 W _ZN8HeisenOs6common4ListIPNS_6system9USBDeviceEE8iteratorC1EPNS0_8ListNodeIS4_EE
c01211c8 W _ZN8HeisenOs6common4ListIPNS_6system9USBDeviceEE8iteratorC2EPNS0_8ListNodeIS4_EE
c01211d6 W _ZN8HeisenOs6common4ListIPNS_6system9USBDeviceEE6RemoveEi
c0121216 W _ZN8HeisenOs6common8ListNodeIPNS_6system13USBControllerEEC1ERKS4_
c0121216 W _ZN8HeisenOs6common8ListNodeIPNS_6system13USBControllerEEC2ERKS4_
c012123a W _ZN8HeisenOs6common4ListIPNS_6system13USBControllerEE14removeInternalEPNS0_8ListNodeIS4_EE
c01212f4 W _ZN8HeisenOs6common8ListNodeIPNS_6system9USBDeviceEEC1ERKS4_
c01212f4 W _ZN8HeisenOs6common8ListNodeIPNS_6system9USBDeviceEEC2ERKS4_
c0121318 W _ZN8HeisenOs6common4ListIPNS_6system9USBDeviceEE14removeInternalEPNS0_8ListNodeIS4_EE
c01213d2 T _Z6spacesj
c012140b T _Z20hid_print_usage_typej
c01214ab T _Z15hid_print_usagejj
c012152e T _Z20hid_print_collectionj
c0121568 T _Z12format_valuejh
c012159a T _ZN8HeisenOs6system9HIDParser5ParseEPNS0_8HID_DATAE
c0121d78 T _ZN8HeisenOs6system9HIDParser5ResetEv
c0121e2a T _ZN8HeisenOs6system9HIDParser10FindObjectEPNS0_8HID_DATAE
c0121f38 T _ZN8HeisenOs6system9HIDParser15GetReportOffsetEhh
c0122062 t _ZN8HeisenOs4coreL7inportbEt
c012207f t _ZN8HeisenOs4coreL8outportbEth
c012209e T _ZN8HeisenOs6system3PITC1Ev
c012209e T _ZN8HeisenOs6system3PITC2Ev
c012213e T _ZN8HeisenOs6system3PIT15HandleInterruptEj
c012215e T _ZN8HeisenOs6system3PIT5SleepEj
c01221ac T _ZN8HeisenOs6system3PIT9PlaySoundEj
c0122228 T _ZN8HeisenOs6system3PIT7NoSoundEv
c0122250 T _ZN8HeisenOs6system3PIT4BeepEv
c012226c T _ZN8HeisenOs6system3PIT4BeepEj
c012228c T _ZN8HeisenOs6system3PIT4BeepEjj
c01222ce T _ZN8HeisenOs6system3PIT5TicksEv
c01222dc T _ZN8HeisenOs6system15SystemComponentC1EPcS2_
c01222dc T _ZN8HeisenOs6system15SystemComponentC2EPcS2_
c01222f4 T _ZN8HeisenOs6system15SystemComponent16GetComponentNameEv
c01222fe T _ZN8HeisenOs6system15SystemComponent23GetComponentDescriptionEv
c012230a T _ZN8HeisenOs6system13APMControllerC1Ev
c012230a T _ZN8HeisenOs6system13APMControllerC2Ev
c01224f0 T _ZN8HeisenOs6system13APMController20CheckAndHandleEventsEv
c012259c T _ZN8HeisenOs6system13APMController13SetPowerStateEth
c01225f2 T _ZN8HeisenOs6system13APMController18DisableResumeTimerEv
c012262c T _ZN8HeisenOs6system13APMController20DisableRingIndicatorEv
c0122666 t _ZN8HeisenOs4coreL8outportbEth
c0122686 T _ZN8HeisenOs6system13DMAControllerC1Ev
c0122686 T _ZN8HeisenOs6system13DMAControllerC2Ev
c01226a8 T _ZN8HeisenOs6system13DMAController17SetChannelAddressEhhh
c0122746 T _ZN8HeisenOs6system13DMAController17SetChannelCounterEhhh
c01227e4 T _ZN8HeisenOs6system13DMAController23SetExternalPageRegisterEhh
c012285e T _ZN8HeisenOs6system13DMAController14SetChannelModeEhh
c01228e8 T _ZN8HeisenOs6system13DMAController18ChannelPrepareReadEh
c012290c T _ZN8HeisenOs6system13DMAController19ChannelPrepareWriteEh
c0122930 T _ZN8HeisenOs6system13DMAController11MaskChannelEh
c012298a T _ZN8HeisenOs6system13DMAController13UnmaskChannelEh
c01229c2 T _ZN8HeisenOs6system13DMAController13ResetFlipFlopEi
c01229f0 T _ZN8HeisenOs6system13DMAController5ResetEi
c0122a06 T _ZN8HeisenOs6system13DMAController9UnmaskAllEi
c0122a1e T _ZN8HeisenOs6system4EDIDC1Ev
c0122a1e T _ZN8HeisenOs6system4EDIDC2Ev
c0122a4a T _Z17EDIDCheckChecksumv
c0122a9a T _ZN8HeisenOs6system4EDID11AcquireEDIDEv
c0122d54 T _ZN8HeisenOs6system4EDID12PreferedModeEPiS2_
c0122e24 T _ZN8HeisenOs6system14GraphicsDeviceC1EPc
c0122e24 T _ZN8HeisenOs6system14GraphicsDeviceC2EPc
c0122e62 T _ZN8HeisenOs6system14GraphicsDeviceD1Ev
c0122e62 T _ZN8HeisenOs6system14GraphicsDeviceD2Ev
c0122e72 T _ZN8HeisenOs6system14GraphicsDeviceD0Ev
c0122e96 T _ZN8HeisenOs6system14GraphicsDevice19SelectBestVideoModeEv
c0122ea0 T _ZN8HeisenOs6system14GraphicsDevice13GetBufferSizeEv
c0122ec4 T _ZN8HeisenOs6system14GraphicsDevice13GetBestDeviceEv
c0122ef6 T _Z13RealPTRToAddrN8HeisenOs6system12Real_PointerE
c0122f10 T _ZN8HeisenOs6system4VESAC1EPNS0_18Virtual8086ManagerE
c0122f10 T _ZN8HeisenOs6system4VESAC2EPNS0_18Virtual8086ManagerE
c0122f5c T _ZN8HeisenOs6system4VESA11GetModeInfoEt
c0122fca T _ZN8HeisenOs6system4VESA12SetVideoModeEt
c0123014 T _ZN8HeisenOs6system4VESA19SelectBestVideoModeEv
c012343e W _ZN8HeisenOs6system4VESAD1Ev
c012343e W _ZN8HeisenOs6system4VESAD2Ev
c0123460 W _ZN8HeisenOs6system4VESAD0Ev
c012348a t _ZN8HeisenOs4coreL7inportwEt
c01234a9 t _ZN8HeisenOs4coreL8outportwEtt
c01234ca T _ZN8HeisenOs6system8BochsVBEC1Ev
c01234ca T _ZN8HeisenOs6system8BochsVBEC2Ev
c012350d T _Z13WriteRegistertt
c0123548 T _Z12ReadRegistert
c0123576 T _ZN8HeisenOs6system8BochsVBE11IsAvailableEv
c01235a8 T _Z12SetVideoModejjjii
c0123622 T _ZN8HeisenOs6system8BochsVBE19SelectBestVideoModeEv
c012367c W _ZN8HeisenOs6system8BochsVBED1Ev
c012367c W _ZN8HeisenOs6system8BochsVBED2Ev
c012369e W _ZN8HeisenOs6system8BochsVBED0Ev
c01236c4 t _ZN8HeisenOs4coreL7inportlEt
c01236e0 t _ZN8HeisenOs4coreL8outportlEtj
c01236f8 T _ZN8HeisenOs6system13PCIController18DeviceHasFunctionsEtt
c0123734 T _ZN8HeisenOs6system13PCIController4ReadEtttj
c01237c0 T _ZN8HeisenOs6system13PCIController5WriteEtttjj
c012383a T _ZN8HeisenOs6system13PCIControllerC1Ev
c012383a T _ZN8HeisenOs6system13PCIControllerC2Ev
c0123880 T _ZN8HeisenOs6system13PCIController18PopulateDeviceListEv
c0123d8c T _ZN8HeisenOs6system13PCIController18GetClassCodeStringEhh
c0123f64 T _ZN8HeisenOs6system13PCIController22GetBaseAddressRegisterEtttt
c01241aa W _ZN8HeisenOs6common4ListIPNS_6system9PCIDeviceEEC1Ev
c01241aa W _ZN8HeisenOs6common4ListIPNS_6system9PCIDeviceEEC2Ev
c01241e2 W _ZN8HeisenOs6common4ListIPNS_6system9PCIDeviceEE5ClearEv
c0124260 W _ZN8HeisenOs6common4ListIPNS_6system9PCIDeviceEE9push_backERKS4_
c012427c W _ZN8HeisenOs6common4ListIPNS_6system9PCIDeviceEE14insertInternalERKS4_PNS0_8ListNodeIS4_EE
c012433a W _ZN8HeisenOs6common8ListNodeIPNS_6system9PCIDeviceEEC1ERKS4_
c012433a W _ZN8HeisenOs6common8ListNodeIPNS_6system9PCIDeviceEEC2ERKS4_
c012435e t _ZN8HeisenOs4coreL7inportbEt
c012437b t _ZN8HeisenOs4coreL8outportbEth
c012439a T _ZN8HeisenOs6system3RTC16UpdateInProgressEv
c01243b8 T _ZN8HeisenOs6system3RTC12ReadRegisterEi
c01243d8 T _ZN8HeisenOs6system3RTCC1Ev
c01243d8 T _ZN8HeisenOs6system3RTCC2Ev
c01243fa T _ZN8HeisenOs6system3RTC9GetSecondEv
c0124464 T _ZN8HeisenOs6system3RTC9GetMinuteEv
c01244ce T _ZN8HeisenOs6system3RTC7GetHourEv
c0124588 T _ZN8HeisenOs6system3RTC6GetDayEv
c01245f2 T _ZN8HeisenOs6system3RTC8GetMonthEv
c012465c T _ZN8HeisenOs6system3RTC7GetYearEv
c01246da T _ZN8HeisenOs6system6SMBIOS10CopyStringEPc
c012472c T _ZN8HeisenOs6system6SMBIOSC1Ev
c012472c T _ZN8HeisenOs6system6SMBIOSC2Ev
c0124ce2 T _ZN8HeisenOs6system6SMBIOS14ExtractStringsEPNS0_9SMBIOSTagE
c0124d76 W _ZN8HeisenOs6common4ListIPcEC1Ev
c0124d76 W _ZN8HeisenOs6common4ListIPcEC2Ev
c0124dae W _ZN8HeisenOs6common4ListIPcE9push_backERKS2_
c0124dca W _ZN8HeisenOs6common4ListIPcE14insertInternalERKS2_PNS0_8ListNodeIS2_EE
c0124e88 W _ZN8HeisenOs6common8ListNodeIPcEC1ERKS2_
c0124e88 W _ZN8HeisenOs6common8ListNodeIPcEC2ERKS2_
c0124eac T _ZN8HeisenOs6system4DiskC1EjPNS0_14DiskControllerENS0_8DiskTypeEyjj
c0124eac T _ZN8HeisenOs6system4DiskC2EjPNS0_14DiskControllerENS0_8DiskTypeEyjj
c0124f12 T _ZN8HeisenOs6system4Disk10ReadSectorEjPh
c0124f5e T _ZN8HeisenOs6system4Disk11WriteSectorEjPh
c0124fae T _ZN8HeisenOs6system16PartitionManager23DetectAndLoadFilesystemEPNS0_4DiskE
c0125220 T _ZN8HeisenOs6system16PartitionManager9AssignVFSENS0_19PartitionTableEntryEPNS0_4DiskE
c0125368 T _ZN8HeisenOs6system11DiskManagerC1Ev
c0125368 T _ZN8HeisenOs6system11DiskManagerC2Ev
c0125390 T _ZN8HeisenOs6system11DiskManager10ReadSectorEtjPh
c01253ee T _ZN8HeisenOs6system11DiskManager11WriteSectorEtjPh
c012544e T _ZN8HeisenOs6system11DiskManager7AddDiskEPNS0_4DiskE
c012547a T _ZN8HeisenOs6system11DiskManager10RemoveDiskEPNS0_4DiskE
c01254ac T _ZN8HeisenOs6system11DiskManager16GetDriveInfoBiosEh
c01254dc W _ZN8HeisenOs6common4ListIPNS_6system4DiskEE6RemoveERKS4_
c0125530 W _ZN8HeisenOs6common4ListIPNS_6system4DiskEE6RemoveEi
c0125570 W _ZN8HeisenOs6common4ListIPNS_6system4DiskEE14removeInternalEPNS0_8ListNodeIS4_EE
c012562a T _ZN8HeisenOs6system14DiskControllerC1Ev
c012562a T _ZN8HeisenOs6system14DiskControllerC2Ev
c012563a T _ZN8HeisenOs6system14DiskController10ReadSectorEtjPh
c012564e T _ZN8HeisenOs6system14DiskController11WriteSectorEtjPh
c0125662 T _ZN8HeisenOs6system14DiskController10EjectDriveEh
c0125676 T _ZN8HeisenOs6system6System5StartEv
c0125dd6 T _ZN8HeisenOs6system6System5PanicEv
c0125e1a W _ZN8HeisenOs6system16StandardOutSteamC1Ev
c0125e1a W _ZN8HeisenOs6system16StandardOutSteamC2Ev
c0125e3c W _ZN8HeisenOs6system16StandardOutSteam5WriteEc
c0125e64 W _ZN8HeisenOs6common4ListIPNS_6system17ListingControllerEEC1Ev
c0125e64 W _ZN8HeisenOs6common4ListIPNS_6system17ListingControllerEEC2Ev
c0125e9c W _ZN8HeisenOs6common4ListIPNS_6system17ListingControllerEE9push_backERKS4_
c0125eb8 W _ZN8HeisenOs6common4ListIPNS_6system17ListingControllerEE14insertInternalERKS4_PNS0_8ListNodeIS4_EE
c0125f76 W _ZN8HeisenOs6common8ListNodeIPNS_6system17ListingControllerEEC1ERKS4_
c0125f76 W _ZN8HeisenOs6common8ListNodeIPNS_6system17ListingControllerEEC2ERKS4_
c0125f9a W _ZN8HeisenOs6system16StandardOutSteamD1Ev
c0125f9a W _ZN8HeisenOs6system16StandardOutSteamD2Ev
c0125fbc W _ZN8HeisenOs6system16StandardOutSteamD0Ev
c0125fe2 T _ZN8HeisenOs6system14SymbolDebuggerC1EPcb
c0125fe2 T _ZN8HeisenOs6system14SymbolDebuggerC2EPcb
c012639e T _ZN8HeisenOs6system14SymbolDebugger10FindSymbolEjPj
c012645a T _ZN8HeisenOs6system14SymbolDebugger10StacktraceEPNS_4core8CPUStateE
c012655e T _ZN8HeisenOs6system14SymbolDebugger6UpdateEv
c012660e T _ZN8HeisenOs6system14SymbolDebugger18HandleDebugCommandEi
c0126aac T _ZN8HeisenOs6system14SymbolDebugger16SendUpdateToHostEv
c0126bd6 T _ZN8HeisenOs6system14SymbolDebugger15PrintMemoryDumpEjjb
c0126ed0 T _ZN8HeisenOs6system14SymbolDebugger15PrintPageTablesEi
c012709c T _ZN8HeisenOs6system14SymbolDebugger13PrintPageItemEPvbtt
c0127198 W _ZN8HeisenOs6common4ListINS_6system15GenericSymbol_tEEC1Ev
c0127198 W _ZN8HeisenOs6common4ListINS_6system15GenericSymbol_tEEC2Ev
c01271d0 W _ZN8HeisenOs6common4ListINS_6system15GenericSymbol_tEE9push_backERKS3_
c01271ec W _ZN8HeisenOs6common4ListINS_6system15GenericSymbol_tEE4sizeEv
c01271f8 W _ZN8HeisenOs6common4ListINS_6system15GenericSymbol_tEEixEi
c012721c W _ZN8HeisenOs6common4ListINS_6system15GenericSymbol_tEE14insertInternalERKS3_PNS0_8ListNodeIS3_EE
c01272da W _ZN8HeisenOs6common4ListINS_6system15GenericSymbol_tEE5GetAtEi
c0127348 W _ZN8HeisenOs6common8ListNodeINS_6system15GenericSymbol_tEEC1ERKS3_
c0127348 W _ZN8HeisenOs6common8ListNodeINS_6system15GenericSymbol_tEEC2ERKS3_
c0127378 T _ZN8HeisenOs6system16InterruptHandlerC1Eh
c0127378 T _ZN8HeisenOs6system16InterruptHandlerC2Eh
c01273a4 T _ZN8HeisenOs6system16InterruptHandler15HandleInterruptEj
c01273ac T _ZN8HeisenOs6system16InterruptManager10InitializeEv
c01273da T _ZN8HeisenOs6system16InterruptManager15HandleInterruptEhj
c012748a T _ZN8HeisenOs6system16InterruptManager10AddHandlerEPNS0_16InterruptHandlerEh
c01274ee T _ZN8HeisenOs6system16InterruptManager13RemoveHandlerEPNS0_16InterruptHandlerEh
c0127574 W _ZN8HeisenOs6common4ListIPNS_6system16InterruptHandlerEE4sizeEv
c0127580 W _ZN8HeisenOs6common4ListIPNS_6system16InterruptHandlerEE5GetAtEi
c01275de W _ZN8HeisenOs6common4ListIPNS_6system16InterruptHandlerEEC1Ev
c01275de W _ZN8HeisenOs6common4ListIPNS_6system16InterruptHandlerEEC2Ev
c0127616 W _ZN8HeisenOs6common4ListIPNS_6system16InterruptHandlerEE9push_backERKS4_
c0127632 W _ZN8HeisenOs6common4ListIPNS_6system16InterruptHandlerEE6RemoveERKS4_
c0127686 W _ZN8HeisenOs6common4ListIPNS_6system16InterruptHandlerEED1Ev
c0127686 W _ZN8HeisenOs6common4ListIPNS_6system16InterruptHandlerEED2Ev
c012769e W _ZN8HeisenOs6common4ListIPNS_6system16InterruptHandlerEE14insertInternalERKS4_PNS0_8ListNodeIS4_EE
c012775c W _ZN8HeisenOs6common4ListIPNS_6system16InterruptHandlerEE6RemoveEi
c012779c W _ZN8HeisenOs6common4ListIPNS_6system16InterruptHandlerEE5ClearEv
c012781a W _ZN8HeisenOs6common8ListNodeIPNS_6system16InterruptHandlerEEC1ERKS4_
c012781a W _ZN8HeisenOs6common8ListNodeIPNS_6system16InterruptHandlerEEC2ERKS4_
c012783e W _ZN8HeisenOs6common4ListIPNS_6system16InterruptHandlerEE14removeInternalEPNS0_8ListNodeIS4_EE
c01278f8 T _ZN8HeisenOs6system12ThreadHelperC1Ev
c01278f8 T _ZN8HeisenOs6system12ThreadHelperC2Ev
c01278fe T _ZN8HeisenOs6system12ThreadHelper18CreateFromFunctionEPFvvEbjPNS0_7ProcessE
c0127b5a T _ZN8HeisenOs6system12ThreadHelper12RemoveThreadEPNS0_6ThreadE
c0127be0 T _ZN8HeisenOs6system13ProcessHelperC1Ev
c0127be0 T _ZN8HeisenOs6system13ProcessHelperC2Ev
c0127be6 T _ZN8HeisenOs6system13ProcessHelper6CreateEPcS2_b
c01283cc T _ZN8HeisenOs6system13ProcessHelper19CreateKernelProcessEv
c01284d4 T _ZN8HeisenOs6system13ProcessHelper13RemoveProcessEPNS0_7ProcessE
c01286d0 T _ZN8HeisenOs6system13ProcessHelper10UpdateHeapEPNS0_7ProcessEj
c012882e T _ZN8HeisenOs6system13ProcessHelper11ProcessByIdEi
c01288b5 t _Z41__static_initialization_and_destruction_0v
c01288ce t _Z41__static_initialization_and_destruction_1v
c01288e7 t _GLOBAL__sub_I__ZN8HeisenOs6system13ProcessHelper9ProcessesE
c01288f4 t _GLOBAL__sub_D__ZN8HeisenOs6system13ProcessHelper9ProcessesE
c0128902 W _ZN8HeisenOs6system7ProcessC1Ev
c0128902 W _ZN8HeisenOs6system7ProcessC2Ev
c012893a W _ZN8HeisenOs6system7ProcessD1Ev
c012893a W _ZN8HeisenOs6system7ProcessD2Ev
c0128968 W _ZN8HeisenOs6common4ListIPNS_6system7ProcessEEC1Ev
c0128968 W _ZN8HeisenOs6common4ListIPNS_6system7ProcessEEC2Ev
c01289a0 W _ZN8HeisenOs6common4ListIPNS_6system6ThreadEED1Ev
c01289a0 W _ZN8HeisenOs6common4ListIPNS_6system6ThreadEED2Ev
c01289b8 W _ZN8HeisenOs6common4ListIN15LIBHeisenKernel10IPCMessageEEC1Ev
c01289b8 W _ZN8HeisenOs6common4ListIN15LIBHeisenKernel10IPCMessageEEC2Ev
c01289f0 W _ZN8HeisenOs6common4ListIN15LIBHeisenKernel10IPCMessageEED1Ev
c01289f0 W _ZN8HeisenOs6common4ListIN15LIBHeisenKernel10IPCMessageEED2Ev
c0128a08 W _ZN8HeisenOs6common4ListIPNS_6system7ProcessEE9push_backERKS4_
c0128a24 W _ZN8HeisenOs6common4ListIPNS_6system7ProcessEE6RemoveERKS4_
c0128a78 W _ZN8HeisenOs6common4ListIN15LIBHeisenKernel10IPCMessageEE5ClearEv
c0128af6 W _ZN8HeisenOs6common4ListIPNS_6system7ProcessEE5beginEv
c0128b18 W _ZN8HeisenOs6common4ListIPNS_6system7ProcessEE3endEv
c0128b36 W _ZN8HeisenOs6common4ListIPNS_6system7ProcessEE8iteratorneERKS6_
c0128b4a W _ZN8HeisenOs6common4ListIPNS_6system7ProcessEE8iteratorppEv
c0128b6c W _ZN8HeisenOs6common4ListIPNS_6system7ProcessEE8iteratordeEv
c0128b76 W _ZN8HeisenOs6common4ListIPNS_6system6ThreadEE5ClearEv
c0128bf4 W _ZN8HeisenOs6common4ListIPNS_6system7ProcessEE14insertInternalERKS4_PNS0_8ListNodeIS4_EE
c0128cb2 W _ZN8HeisenOs6common4ListIPNS_6system7ProcessEE6RemoveEi
c0128cf2 W _ZN8HeisenOs6common4ListIPNS_6system7ProcessEE8iteratorC1EPNS0_8ListNodeIS4_EE
c0128cf2 W _ZN8HeisenOs6common4ListIPNS_6system7ProcessEE8iteratorC2EPNS0_8ListNodeIS4_EE
c0128d00 W _ZN8HeisenOs6common8ListNodeIPNS_6system7ProcessEEC1ERKS4_
c0128d00 W _ZN8HeisenOs6common8ListNodeIPNS_6system7ProcessEEC2ERKS4_
c0128d24 W _ZN8HeisenOs6common4ListIPNS_6system7ProcessEE14removeInternalEPNS0_8ListNodeIS4_EE
c0128dde W _ZN8HeisenOs6common4ListIPNS_6system7ProcessEED1Ev
c0128dde W _ZN8HeisenOs6common4ListIPNS_6system7ProcessEED2Ev
c0128df6 W _ZN8HeisenOs6common4ListIPNS_6system7ProcessEE5ClearEv
c0128e74 t _ZN8HeisenOs4coreL8outportbEth
c0128e94 T _ZN8HeisenOs6system9SchedulerC1Ev
c0128e94 T _ZN8HeisenOs6system9SchedulerC2Ev
c0128f34 T _ZN8HeisenOs6system9Scheduler15HandleInterruptEj
c012919c T _ZN8HeisenOs6system9Scheduler18GetNextReadyThreadEv
c0129258 T _ZN8HeisenOs6system9Scheduler9AddThreadEPNS0_6ThreadEb
c01292ba T _ZN8HeisenOs6system9Scheduler21InitialThreadUserJumpEPNS0_6ThreadE
c0129356 T _ZN8HeisenOs6system9Scheduler11ForceSwitchEv
c012937c T _ZN8HeisenOs6system9Scheduler13CurrentThreadEv
c0129388 T _ZN8HeisenOs6system9Scheduler14CurrentProcessEv
c01293a6 T _ZN8HeisenOs6system9Scheduler5BlockEPNS0_6ThreadENS0_12BlockedStateE
c01293e0 T _ZN8HeisenOs6system9Scheduler7UnblockEPNS0_6ThreadEb
c012940a T _ZN8HeisenOs6system9Scheduler22ProcessSleepingThreadsEv
c01294a4 W _ZN8HeisenOs6common4ListIPNS_6system6ThreadEE6RemoveERKS4_
c01294f8 W _ZN8HeisenOs6common4ListIPNS_6system6ThreadEE7IndexOfERKS4_
c0129544 W _ZN8HeisenOs6common4ListIPNS_6system6ThreadEE6RemoveEi
c0129584 W _ZN8HeisenOs6common4ListIPNS_6system6ThreadEE14removeInternalEPNS0_8ListNodeIS4_EE
c012963e T _ZN8HeisenOs6system10IPCManager10InitializeEv
c012966c T _ZN8HeisenOs6system10IPCManager10HandleSendEPNS_4core8CPUStateEPNS0_7ProcessE
c01297e0 T _ZN8HeisenOs6system10IPCManager13HandleReceiveEPNS_4core8CPUStateEPNS0_7ProcessE
c0129970 W _ZN8HeisenOs6common4ListINS_6system20IPCReceiveDescriptorEEC1Ev
c0129970 W _ZN8HeisenOs6common4ListINS_6system20IPCReceiveDescriptorEEC2Ev
c01299a8 W _ZN8HeisenOs6common4ListIN15LIBHeisenKernel10IPCMessageEE9push_backERKS3_
c01299c4 W _ZN8HeisenOs6common4ListINS_6system20IPCReceiveDescriptorEE5beginEv
c01299e6 W _ZN8HeisenOs6common4ListINS_6system20IPCReceiveDescriptorEE3endEv
c0129a04 W _ZN8HeisenOs6common4ListINS_6system20IPCReceiveDescriptorEE8iteratorneERKS5_
c0129a18 W _ZN8HeisenOs6common4ListINS_6system20IPCReceiveDescriptorEE8iteratorppEv
c0129a3a W _ZN8HeisenOs6common4ListINS_6system20IPCReceiveDescriptorEE8iteratordeEv
c0129a44 W _ZN8HeisenOs6common4ListINS_6system20IPCReceiveDescriptorEE6RemoveEi
c0129a84 W _ZN8HeisenOs6common4ListIN15LIBHeisenKernel10IPCMessageEE4sizeEv
c0129a90 W _ZN8HeisenOs6common4ListINS_6system20IPCReceiveDescriptorEE9push_backERKS3_
c0129aac W _ZN8HeisenOs6common4ListIN15LIBHeisenKernel10IPCMessageEE5GetAtEi
c0129b3e W _ZN8HeisenOs6common4ListIN15LIBHeisenKernel10IPCMessageEE6RemoveEi
c0129b7e W _ZN8HeisenOs6common4ListIN15LIBHeisenKernel10IPCMessageEE14insertInternalERKS3_PNS0_8ListNodeIS3_EE
c0129c3c W _ZN8HeisenOs6common4ListINS_6system20IPCReceiveDescriptorEE8iteratorC1EPNS0_8ListNodeIS3_EE
c0129c3c W _ZN8HeisenOs6common4ListINS_6system20IPCReceiveDescriptorEE8iteratorC2EPNS0_8ListNodeIS3_EE
c0129c4a W _ZN8HeisenOs6common4ListINS_6system20IPCReceiveDescriptorEE14removeInternalEPNS0_8ListNodeIS3_EE
c0129d04 W _ZN8HeisenOs6common4ListINS_6system20IPCReceiveDescriptorEE14insertInternalERKS3_PNS0_8ListNodeIS3_EE
c0129dc2 W _ZN8HeisenOs6common4ListIN15LIBHeisenKernel10IPCMessageEE14removeInternalEPNS0_8ListNodeIS3_EE
c0129e7c W _ZN8HeisenOs6common8ListNodeIN15LIBHeisenKernel10IPCMessageEEC1ERKS3_
c0129e7c W _ZN8HeisenOs6common8ListNodeIN15LIBHeisenKernel10IPCMessageEEC2ERKS3_
c0129ed0 W _ZN8HeisenOs6common8ListNodeINS_6system20IPCReceiveDescriptorEEC1ERKS3_
c0129ed0 W _ZN8HeisenOs6common8ListNodeINS_6system20IPCReceiveDescriptorEEC2ERKS3_
c0129f10 T enter_usermode
c0129f3e T _ZN8HeisenOs6system9MutexLockC1Ev
c0129f3e T _ZN8HeisenOs6system9MutexLockC2Ev
c0129f56 T _ZN8HeisenOs6system9MutexLock4LockEv
c0129fa8 T _ZN8HeisenOs6system9MutexLock6UnlockEv
c0129fb7 T TestAndSet
c0129fc4 T _ZN8HeisenOs6system17SystemCallHandlerC1Ev
c0129fc4 T _ZN8HeisenOs6system17SystemCallHandlerC2Ev
c0129fec T _ZN8HeisenOs6system17SystemCallHandler15HandleInterruptEj
c012a070 T _ZN8HeisenOs6system13LinuxSyscalls13HandleSyscallEPNS_4core8CPUStateE
c012a0c8 T _ZN8HeisenOs6system16CactusOSSyscalls13HandleSyscallEPNS_4core8CPUStateE
c012af14 t _Z41__static_initialization_and_destruction_0v
c012af2d t _GLOBAL__sub_I_stdOutStream
c012af3a W _ZN8HeisenOs6common4ListIPNS_6system17ListingControllerEE4sizeEv
c012af46 W _ZN8HeisenOs6common4ListIPNS_6system17ListingControllerEE5GetAtEi
c012afa4 T _Z7IsSpacec
c012afe6 T _ZN8HeisenOs6common7Convert11IntToStringEi
c012b0b6 T _ZN8HeisenOs6common7Convert13IntToString32Ej
c012b154 T _ZN8HeisenOs6common7Convert14IntToHexStringEh
c012b1e6 T _ZN8HeisenOs6common7Convert14IntToHexStringEt
c012b27a T _ZN8HeisenOs6common7Convert14IntToHexStringEj
c012b306 T _ZN8HeisenOs6common7Convert11StringToIntEPc
c012b3a4 T _ZN8HeisenOs6common7Convert8HexToIntEPc
c012b456 T _ZN8HeisenOs6common6Random4NextEj
c012b488 T _ZN8HeisenOs6common6Random4NextEjj
c012b4a4 T _ZN8HeisenOs6common6Random7SetSeedEj
c012b4b2 T _ZN8HeisenOs6common5Print9printfHexEh
c012b512 T _ZN8HeisenOs6common5Print11printfHex16Et
c012b54c T _ZN8HeisenOs6common5Print11printfHex32Ej
c012b5a6 T _ZN8HeisenOs6common5Print9printbitsEh
c012b5ec T _ZN8HeisenOs6common5Print9printbitsEt
c012b634 T _ZN8HeisenOs6common5Print9printbitsEj
c012b672 T _ZN8HeisenOs6common5Print9printbitsEy
c012b6cc T _ZN8HeisenOs6common6String6strlenEPKc
c012b6f4 T _ZN8HeisenOs6common6String6strcmpEPKcS3_
c012b72a T _ZN8HeisenOs6common6String7strncmpEPKcS3_i
c012b770 T _ZN8HeisenOs6common6String7IndexOfEPKccj
c012b7da T _ZN8HeisenOs6common6String8ContainsEPKcc
c012b820 T _ZN8HeisenOs6common6String5SplitEPKcc
c012b94c T _ZN8HeisenOs6common6String9UppercaseEPc
c012b9b2 T _ZN8HeisenOs6common6String9LowercaseEPc
c012ba18 T _ZN8HeisenOs6common6String9UppercaseEc
c012ba40 T _ZN8HeisenOs6common6String9LowercaseEc
c012ba68 T _ZN8HeisenOs6common6String6strcpyEPcPKc
c012baae T _ZN8HeisenOs6common6String7strncpyEPcPKcj
c012bb3c T _ZN8HeisenOs6common16MemoryOperations7memmoveEPvPKvj
c012bbb4 T _ZN8HeisenOs6common16MemoryOperations6memcmpEPKvS3_j
c012bc24 T _ZN8HeisenOs6common16MemoryOperations6memsetEPvcj
c012bc5e T _ZN8HeisenOs6common16MemoryOperations6memcpyEPvPKvj
c012bca0 T _Z8LBAToCHSiPiS_S_
c012bd30 T _ZN8HeisenOs9Installer3RunEv
c012bf0a T _ZN8HeisenOs9Installer6GetKeyEv
c012bf54 T _ZN8HeisenOs9Installer18ShowWelcomeMessageEv
c012c030 T _ZN8HeisenOs9Installer18ShowWarningMessageEv
c012c10c T _ZN8HeisenOs9Installer17ShowDiskSelectionEv
c012c35e T _ZN8HeisenOs9Installer17ShowDiskEraseMenuEv
c012c5ec T _ZN8HeisenOs9Installer17ShowInstallScreenEv
c012c9e9 T _Z8CopyFilePN8HeisenOs6system17VirtualFileSystemES2_Pc
c012cab8 T _Z13CopyDirectoryPN8HeisenOs6system17VirtualFileSystemES2_Pc
c012cdb2 T _ZN8HeisenOs9Installer20ShowSystemCopyScreenEPNS_6system3FATE
c012ce12 T _ZN8HeisenOs9Installer10SetupErrorEv
c012ce33 T _Z11alignSectorjj
c012ce4a T _Z15setClusterValuePhij
c012ceb8 T _ZN8HeisenOs9Installer18CreateFatPartitionEPNS_6system19PartitionTableEntryE
c012d667 W _Z4cdivjj
c012d680 W _ZN8HeisenOs6common4ListIN15LIBHeisenKernel8VFSEntryEE5beginEv
c012d6a2 W _ZN8HeisenOs6common4ListIN15LIBHeisenKernel8VFSEntryEE3endEv
c012d6c0 W _ZN8HeisenOs6common4ListIN15LIBHeisenKernel8VFSEntryEE8iteratorneERKS5_
c012d6d4 W _ZN8HeisenOs6common4ListIN15LIBHeisenKernel8VFSEntryEE8iteratorppEv
c012d6f8 W _ZN8HeisenOs6common4ListIN15LIBHeisenKernel8VFSEntryEE8iteratordeEv
c012d702 W _ZN8HeisenOs6common4ListIN15LIBHeisenKernel8VFSEntryEE8iteratorC1EPNS0_8ListNodeIS3_EE
c012d702 W _ZN8HeisenOs6common4ListIN15LIBHeisenKernel8VFSEntryEE8iteratorC2EPNS0_8ListNodeIS3_EE
c012d710 t _ZN8HeisenOs4coreL8outportbEth
c012d730 T _ZN8HeisenOs7TextGUI13DisableCursorEv
c012d754 T _ZN8HeisenOs7TextGUI8SetPixelEiictc
c012d7c0 T _ZN8HeisenOs7TextGUI11ClearScreenEc
c012d80e T _ZN8HeisenOs7TextGUI9StatusBarEPci
c012d8e4 T _ZN8HeisenOs7TextGUI10DrawStringEPciicc
c012e000 R _stderr
c012e004 r _hexchars
c012ebd4 r _ZL11codeSegment
c012ebd6 r _ZL12stackSegment
c0130c80 r _ZL18pciDriverListCount
c013158c r _ZL19numClassCodeStrings
c0133950 V _ZTVN8HeisenOs6system18Virtual8086MonitorE
c013395c V _ZTVN8HeisenOs6system18Virtual8086ManagerE
c0133968 V _ZTVN8HeisenOs6system3FATE
c013399c V _ZTVN8HeisenOs6system17VirtualFileSystemE
c01339d0 V _ZTVN8HeisenOs6system7ISO9660E
c0133a04 V _ZTVN8HeisenOs6system7drivers12VMWARESVGAIIE
c0133a30 V _ZTVN8HeisenOs6system7drivers17PS2KeyboardDriverE
c0133a80 V _ZTVN8HeisenOs6system7drivers14PS2MouseDriverE
c0133a9c V _ZTVN8HeisenOs6system7drivers12FloppyDriverE
c0133ad8 V _ZTVN8HeisenOs6system7drivers20USBMassStorageDriverE
c0133b0c V _ZTVN8HeisenOs6system7drivers16USBComboReceiverE
c0133b34 V _ZTVN8HeisenOs6system9USBDriverE
c0133b50 V _ZTVN8HeisenOs6system7drivers14UHCIControllerE
c0133b94 V _ZTVN8HeisenOs6system7drivers14OHCIControllerE
c0133bd8 V _ZTVN8HeisenOs6system7drivers14EHCIControllerE
c0133c1c V _ZTVN8HeisenOs6system7drivers11USBKeyboardE
c0133c48 V _ZTVN8HeisenOs6system7drivers8USBMouseE
c0133c64 V _ZTVN8HeisenOs6system7drivers6DriverE
c0133c70 V _ZTVN8HeisenOs6system7drivers13IDEControllerE
c0133c9c V _ZTVN8HeisenOs6system7drivers19IDEInterruptHandlerE
c0133ca8 V _ZTVN8HeisenOs6system7drivers14AHCIControllerE
c0133ce4 V _ZTVN8HeisenOs6system10FIFOStreamE
c0133d00 V _ZTVN8HeisenOs6system6StreamE
c0133d1c V _ZTVN8HeisenOs6system15KeyboardManagerE
c0133d38 V _ZTVN8HeisenOs6system8KeyboardE
c0133d44 V _ZTVN8HeisenOs6system17ListingControllerE
c0133d58 V _ZTVN8HeisenOs6system16DirectoryListingE
c0133d6c V _ZTVN8HeisenOs6system13USBControllerE
c0133d90 V _ZTVN8HeisenOs6system3PITE
c0133d9c V _ZTVN8HeisenOs6system14GraphicsDeviceE
c0133db0 V _ZTVN8HeisenOs6system4VESAE
c0133dc4 V _ZTVN8HeisenOs6system8BochsVBEE
c0133dd8 V _ZTVN8HeisenOs6system4DiskE
c0133de8 V _ZTVN8HeisenOs6system14DiskControllerE
c0133dfc V _ZTVN8HeisenOs6system16StandardOutSteamE
c0133e18 V _ZTVN8HeisenOs6system16InterruptHandlerE
c0133e24 V _ZTVN8HeisenOs6system9SchedulerE
c0133e30 V _ZTVN8HeisenOs6system17SystemCallHandlerE
c0134000 B _registers
c0134040 B _remcomStack
c0136750 B _gdb_i386errcode
c0136754 b _initialized
c0136760 b _remcomInBuffer
c0136900 b _remcomOutBuffer
c0136a90 b _mem_fault_routine
c0136a94 b _mem_err
c0136a98 B autoFixPagefaults
c0136aa0 B idtEntries
c01372a0 B idtPointer
c01372a8 B _ZN8HeisenOs4core21PhysicalMemoryManager10memorySizeE
c01372ac B _ZN8HeisenOs4core21PhysicalMemoryManager10usedBlocksE
c01372b0 B _ZN8HeisenOs4core21PhysicalMemoryManager13maximumBlocksE
c01372b4 B _ZN8HeisenOs4core21PhysicalMemoryManager11memoryArrayE
c01372b8 B SMI_CMD
c01372bc B ACPI_ENABLE
c01372bd B ACPI_DISABLE
c01372c0 B PM1a_CNT
c01372c4 B PM1b_CNT
c01372c8 B SLP_TYPa
c01372ca B SLP_TYPb
c01372cc B SLP_EN
c01372ce B SCI_EN
c01372d0 B PM1_CNT_LEN
c01372e0 B gdtEntries
c0137310 B gdtPointer
c0137320 b _ZL3tss
c0137388 B powerRequestState
c01373a0 B vm86CPUState
c01373ec B locationInMemory
c0137400 B readBuffer
c0137c00 B _ZN8HeisenOs6system10KernelHeap12startAddressE
c0137c04 B _ZN8HeisenOs6system10KernelHeap10endAddressE
c0137c08 B _ZN8HeisenOs6system10KernelHeap11firstHeaderE
c0137c0c B _ZN8HeisenOs6system10KernelHeap9heapMutexE
c0137c10 B _ZN8HeisenOs6system10Serialport11InitializedE
c0137c14 B currentDirectoryList
c0137c18 B _ZN8HeisenOs6system11BootConsole7XOffsetE
c0137c1c B _ZN8HeisenOs6system11BootConsole7YOffsetE
c0137c20 B _ZN8HeisenOs6system11BootConsole15BackgroundColorE
c0137c21 B _ZN8HeisenOs6system11BootConsole13writeToSerialE
c0137c40 B spaces_buff
c0137c64 b _ZZN8HeisenOs6system9HIDParser5ParseEPNS0_8HID_DATAEE9space_cnt
c0137c68 b _ZZN8HeisenOs6system9HIDParser5ParseEPNS0_8HID_DATAEE14did_collection
c0137c6c B edidBuffer
c0137c70 B _ZN8HeisenOs6system6System3mbiE
c0137c74 B _ZN8HeisenOs6system6System3pitE
c0137c78 B _ZN8HeisenOs6system6System3rtcE
c0137c7c B _ZN8HeisenOs6system6System3dmaE
c0137c80 B _ZN8HeisenOs6system6System6smbiosE
c0137c84 B _ZN8HeisenOs6system6System11vm86ManagerE
c0137c88 B _ZN8HeisenOs6system6System11vm86MonitorE
c0137c8c B _ZN8HeisenOs6system6System9gfxDeviceE
c0137c90 B _ZN8HeisenOs6system6System4edidE
c0137c94 B _ZN8HeisenOs6system6System3pciE
c0137c98 B _ZN8HeisenOs6system6System13driverManagerE
c0137c9c B _ZN8HeisenOs6system6System11diskManagerE
c0137ca0 B _ZN8HeisenOs6system6System3vfsE
c0137ca4 B _ZN8HeisenOs6system6System9schedulerE
c0137ca8 B _ZN8HeisenOs6system6System3apmE
c0137cac B _ZN8HeisenOs6system6System8syscallsE
c0137cb0 B _ZN8HeisenOs6system6System10systemInfoE
c0137cb4 B _ZN8HeisenOs6system6System10screenModeE
c0137cb8 B _ZN8HeisenOs6system6System10gdbEnabledE
c0137cb9 B _ZN8HeisenOs6system6System9setupModeE
c0137cbc B _ZN8HeisenOs6system6System15keyboardManagerE
c0137cc0 B _ZN8HeisenOs6system6System15ProcStandardOutE
c0137cc4 B _ZN8HeisenOs6system6System8listingsE
c0137cc8 B _ZN8HeisenOs6system6System10usbManagerE
c0137ccc B _ZN8HeisenOs6system6System14kernelDebuggerE
c0137cd0 B _ZN8HeisenOs6system6System10statisticsE
c0137ce4 b _ZZN8HeisenOs6system14SymbolDebugger13PrintPageItemEPvbttE12curChainSize
c0137ce8 b _ZZN8HeisenOs6system14SymbolDebugger13PrintPageItemEPvbttE13curChainStart
c0137d00 B _ZN8HeisenOs6system16InterruptManager18interruptCallbacksE
c0138100 B _ZN8HeisenOs6system13ProcessHelper9ProcessesE
c0138110 B receivingBlockedList
c0138114 B stdOutStream
c0138120 b _ZZN8HeisenOs6common7Convert11IntToStringEiE3ret
c0138140 b _ZZN8HeisenOs6common7Convert13IntToString32EjE3ret
c0138160 B _ZN8HeisenOs6common6Random4nextE
c0138164 B selectedDisk
c0138168 b stack_bottom
c013c168 B stack_top
c013d000 D end_ctors
c013d000 D _remote_debug
c013d000 D start_ctors
c013d004 d _stackPtr
c013d008 D _gdb_i386vector
c013e000 D BootPageDirectory
c013f000 D _kernel_virtual_base
c013f004 D logLevelMessage
c013f020 d _ZL11FloppyTypes
c013f040 d _ZZN8HeisenOs6system7drivers12FloppyDriver17TransferSectorCHSEhNS1_15FloppyDirectionEhhhE6status
c013f050 D pciDriverList
c013f058 D _ZN8HeisenOs6system10DeviceHeap14currentAddressE
c013f05c D _ZN8HeisenOs6system10Serialport11PortAddressE
c013f060 D _ZN8HeisenOs6system17SystemInfoManager4biosE
c013f06c D _ZN8HeisenOs6system17SystemInfoManager6systemE
c013f084 D _ZN8HeisenOs6system17SystemInfoManager9enclosureE
c013f094 D _ZN8HeisenOs6system17SystemInfoManager9processorE
c013f0a0 D _ZN8HeisenOs6system11BootConsole15ForegroundColorE
c013f0a4 d _ZL11videoMemory
c013f0a8 d _ZZN8HeisenOs6system11BootConsole5WriteEcE3str
c013f0c0 D USBControllerStrings
c013f0e0 D USBClassCodeStrings
c013f140 D usage_type_str
c013f8c0 D usage_str_page_1
c0140e00 D collection_str
c0140fc0 d _ZZN8HeisenOs6system9HIDParser5ParseEPNS0_8HID_DATAEE9item_size
c0140fd0 d _ZL10currentPID
c0140fd4 d _ZZN8HeisenOs6common7Convert14IntToHexStringEhE6digits
c0140fd8 d _ZZN8HeisenOs6common7Convert14IntToHexStringEtE6digits
c0140fdc d _ZZN8HeisenOs6common7Convert14IntToHexStringEjE6digits
c0140fe0 D AsciiLogo
c0140ffc D FileList
c0141020 D GrubModules
c014107c D videoMemory
c0141090 D _kernel_end
e4524ffb a CHECKSUM
